	.text
	.file	"mem_manager.cpp"
	.section	.text.startup,"axG",@progbits,_ZN5boost12interprocess13mapped_region16page_size_holderILi0EE8PageSizeE,comdat
	.p2align	4, 0x90         # -- Begin function __cxx_global_var_init
	.type	__cxx_global_var_init,@function
__cxx_global_var_init:                  # @__cxx_global_var_init
	.cfi_startproc
# %bb.0:
	pushq	%rbp
	.cfi_def_cfa_offset 16
	.cfi_offset %rbp, -16
	movq	%rsp, %rbp
	.cfi_def_cfa_register %rbp
	cmpb	$0, _ZGVN5boost12interprocess13mapped_region16page_size_holderILi0EE8PageSizeE
	jne	.LBB0_2
# %bb.1:
	callq	_ZN5boost12interprocess13mapped_region16page_size_holderILi0EE13get_page_sizeEv
	movq	%rax, _ZN5boost12interprocess13mapped_region16page_size_holderILi0EE8PageSizeE
	movq	$1, _ZGVN5boost12interprocess13mapped_region16page_size_holderILi0EE8PageSizeE
.LBB0_2:
	popq	%rbp
	.cfi_def_cfa %rsp, 8
	retq
.Lfunc_end0:
	.size	__cxx_global_var_init, .Lfunc_end0-__cxx_global_var_init
	.cfi_endproc
                                        # -- End function
	.section	.text._ZN5boost12interprocess13mapped_region16page_size_holderILi0EE13get_page_sizeEv,"axG",@progbits,_ZN5boost12interprocess13mapped_region16page_size_holderILi0EE13get_page_sizeEv,comdat
	.weak	_ZN5boost12interprocess13mapped_region16page_size_holderILi0EE13get_page_sizeEv # -- Begin function _ZN5boost12interprocess13mapped_region16page_size_holderILi0EE13get_page_sizeEv
	.p2align	4, 0x90
	.type	_ZN5boost12interprocess13mapped_region16page_size_holderILi0EE13get_page_sizeEv,@function
_ZN5boost12interprocess13mapped_region16page_size_holderILi0EE13get_page_sizeEv: # @_ZN5boost12interprocess13mapped_region16page_size_holderILi0EE13get_page_sizeEv
	.cfi_startproc
# %bb.0:
	pushq	%rbp
	.cfi_def_cfa_offset 16
	.cfi_offset %rbp, -16
	movq	%rsp, %rbp
	.cfi_def_cfa_register %rbp
	movl	$30, %edi
	callq	sysconf
	popq	%rbp
	.cfi_def_cfa %rsp, 8
	retq
.Lfunc_end1:
	.size	_ZN5boost12interprocess13mapped_region16page_size_holderILi0EE13get_page_sizeEv, .Lfunc_end1-_ZN5boost12interprocess13mapped_region16page_size_holderILi0EE13get_page_sizeEv
	.cfi_endproc
                                        # -- End function
	.section	.text.startup,"ax",@progbits
	.p2align	4, 0x90         # -- Begin function __cxx_global_var_init.1
	.type	__cxx_global_var_init.1,@function
__cxx_global_var_init.1:                # @__cxx_global_var_init.1
	.cfi_startproc
# %bb.0:
	pushq	%rbp
	.cfi_def_cfa_offset 16
	.cfi_offset %rbp, -16
	movq	%rsp, %rbp
	.cfi_def_cfa_register %rbp
	subq	$16, %rsp
	movabsq	$myform, %rax
	movq	%rax, -8(%rbp)          # 8-byte Spill
	jmp	.LBB2_1
.LBB2_1:                                # =>This Inner Loop Header: Depth=1
	movq	-8(%rbp), %rax          # 8-byte Reload
	movq	%rax, %rdi
	movq	%rax, -16(%rbp)         # 8-byte Spill
	callq	_ZN6MyformC2Ev
	movabsq	$myform, %rax
	addq	$240, %rax
	movq	-16(%rbp), %rcx         # 8-byte Reload
	addq	$24, %rcx
	cmpq	%rax, %rcx
	movq	%rcx, -8(%rbp)          # 8-byte Spill
	jne	.LBB2_1
# %bb.2:
	addq	$16, %rsp
	popq	%rbp
	.cfi_def_cfa %rsp, 8
	retq
.Lfunc_end2:
	.size	__cxx_global_var_init.1, .Lfunc_end2-__cxx_global_var_init.1
	.cfi_endproc
                                        # -- End function
	.section	.text._ZN6MyformC2Ev,"axG",@progbits,_ZN6MyformC2Ev,comdat
	.weak	_ZN6MyformC2Ev          # -- Begin function _ZN6MyformC2Ev
	.p2align	4, 0x90
	.type	_ZN6MyformC2Ev,@function
_ZN6MyformC2Ev:                         # @_ZN6MyformC2Ev
	.cfi_startproc
# %bb.0:
	pushq	%rbp
	.cfi_def_cfa_offset 16
	.cfi_offset %rbp, -16
	movq	%rsp, %rbp
	.cfi_def_cfa_register %rbp
	movq	%rdi, -8(%rbp)
	movq	-8(%rbp), %rax
	movl	$0, (%rax)
	movq	$0, 8(%rax)
	movl	$0, 16(%rax)
	movl	$0, 20(%rax)
	popq	%rbp
	.cfi_def_cfa %rsp, 8
	retq
.Lfunc_end3:
	.size	_ZN6MyformC2Ev, .Lfunc_end3-_ZN6MyformC2Ev
	.cfi_endproc
                                        # -- End function
	.section	.text.startup,"ax",@progbits
	.p2align	4, 0x90         # -- Begin function __cxx_global_var_init.2
	.type	__cxx_global_var_init.2,@function
__cxx_global_var_init.2:                # @__cxx_global_var_init.2
	.cfi_startproc
# %bb.0:
	pushq	%rbp
	.cfi_def_cfa_offset 16
	.cfi_offset %rbp, -16
	movq	%rsp, %rbp
	.cfi_def_cfa_register %rbp
	movabsq	$segment, %rdi
	callq	_ZN5boost12interprocess27basic_managed_shared_memoryIcNS0_15rbtree_best_fitINS0_12mutex_familyENS0_10offset_ptrIvlmLm0EEELm0EEENS0_10iset_indexEEC2Ev
	movabsq	$_ZN5boost12interprocess27basic_managed_shared_memoryIcNS0_15rbtree_best_fitINS0_12mutex_familyENS0_10offset_ptrIvlmLm0EEELm0EEENS0_10iset_indexEED2Ev, %rax
	movabsq	$segment, %rcx
	movq	%rax, %rdi
	movq	%rcx, %rsi
	movabsq	$__dso_handle, %rdx
	callq	__cxa_atexit
	popq	%rbp
	.cfi_def_cfa %rsp, 8
	retq
.Lfunc_end4:
	.size	__cxx_global_var_init.2, .Lfunc_end4-__cxx_global_var_init.2
	.cfi_endproc
                                        # -- End function
	.section	.text._ZN5boost12interprocess27basic_managed_shared_memoryIcNS0_15rbtree_best_fitINS0_12mutex_familyENS0_10offset_ptrIvlmLm0EEELm0EEENS0_10iset_indexEEC2Ev,"axG",@progbits,_ZN5boost12interprocess27basic_managed_shared_memoryIcNS0_15rbtree_best_fitINS0_12mutex_familyENS0_10offset_ptrIvlmLm0EEELm0EEENS0_10iset_indexEEC2Ev,comdat
	.weak	_ZN5boost12interprocess27basic_managed_shared_memoryIcNS0_15rbtree_best_fitINS0_12mutex_familyENS0_10offset_ptrIvlmLm0EEELm0EEENS0_10iset_indexEEC2Ev # -- Begin function _ZN5boost12interprocess27basic_managed_shared_memoryIcNS0_15rbtree_best_fitINS0_12mutex_familyENS0_10offset_ptrIvlmLm0EEELm0EEENS0_10iset_indexEEC2Ev
	.p2align	4, 0x90
	.type	_ZN5boost12interprocess27basic_managed_shared_memoryIcNS0_15rbtree_best_fitINS0_12mutex_familyENS0_10offset_ptrIvlmLm0EEELm0EEENS0_10iset_indexEEC2Ev,@function
_ZN5boost12interprocess27basic_managed_shared_memoryIcNS0_15rbtree_best_fitINS0_12mutex_familyENS0_10offset_ptrIvlmLm0EEELm0EEENS0_10iset_indexEEC2Ev: # @_ZN5boost12interprocess27basic_managed_shared_memoryIcNS0_15rbtree_best_fitINS0_12mutex_familyENS0_10offset_ptrIvlmLm0EEELm0EEENS0_10iset_indexEEC2Ev
.Lfunc_begin0:
	.cfi_startproc
	.cfi_personality 3, __gxx_personality_v0
	.cfi_lsda 3, .Lexception0
# %bb.0:
	pushq	%rbp
	.cfi_def_cfa_offset 16
	.cfi_offset %rbp, -16
	movq	%rsp, %rbp
	.cfi_def_cfa_register %rbp
	subq	$32, %rsp
	movq	%rdi, -8(%rbp)
	movq	-8(%rbp), %rax
	movq	%rax, %rdi
	movq	%rax, -32(%rbp)         # 8-byte Spill
	callq	_ZN5boost12interprocess9ipcdetail25basic_managed_memory_implIcNS0_15rbtree_best_fitINS0_12mutex_familyENS0_10offset_ptrIvlmLm0EEELm0EEENS0_10iset_indexELm16EEC2Ev
	movq	-32(%rbp), %rax         # 8-byte Reload
	addq	$8, %rax
.Ltmp0:
	movq	%rax, %rdi
	callq	_ZN5boost12interprocess9ipcdetail27managed_open_or_create_implINS0_20shared_memory_objectELm16ELb1ELb0EEC2Ev
.Ltmp1:
	jmp	.LBB5_1
.LBB5_1:
	addq	$32, %rsp
	popq	%rbp
	.cfi_def_cfa %rsp, 8
	retq
.LBB5_2:
	.cfi_def_cfa %rbp, 16
.Ltmp2:
                                        # kill: def $edx killed $edx killed $rdx
	movq	%rax, -16(%rbp)
	movl	%edx, -20(%rbp)
	movq	-32(%rbp), %rax         # 8-byte Reload
	movq	%rax, %rdi
	callq	_ZN5boost12interprocess9ipcdetail25basic_managed_memory_implIcNS0_15rbtree_best_fitINS0_12mutex_familyENS0_10offset_ptrIvlmLm0EEELm0EEENS0_10iset_indexELm16EED2Ev
# %bb.3:
	movq	-16(%rbp), %rdi
	callq	_Unwind_Resume
.Lfunc_end5:
	.size	_ZN5boost12interprocess27basic_managed_shared_memoryIcNS0_15rbtree_best_fitINS0_12mutex_familyENS0_10offset_ptrIvlmLm0EEELm0EEENS0_10iset_indexEEC2Ev, .Lfunc_end5-_ZN5boost12interprocess27basic_managed_shared_memoryIcNS0_15rbtree_best_fitINS0_12mutex_familyENS0_10offset_ptrIvlmLm0EEELm0EEENS0_10iset_indexEEC2Ev
	.cfi_endproc
	.section	.gcc_except_table,"a",@progbits
	.p2align	2
GCC_except_table5:
.Lexception0:
	.byte	255                     # @LPStart Encoding = omit
	.byte	255                     # @TType Encoding = omit
	.byte	1                       # Call site Encoding = uleb128
	.uleb128 .Lcst_end0-.Lcst_begin0
.Lcst_begin0:
	.uleb128 .Ltmp0-.Lfunc_begin0   # >> Call Site 1 <<
	.uleb128 .Ltmp1-.Ltmp0          #   Call between .Ltmp0 and .Ltmp1
	.uleb128 .Ltmp2-.Lfunc_begin0   #     jumps to .Ltmp2
	.byte	0                       #   On action: cleanup
	.uleb128 .Ltmp1-.Lfunc_begin0   # >> Call Site 2 <<
	.uleb128 .Lfunc_end5-.Ltmp1     #   Call between .Ltmp1 and .Lfunc_end5
	.byte	0                       #     has no landing pad
	.byte	0                       #   On action: cleanup
.Lcst_end0:
	.p2align	2
                                        # -- End function
	.section	.text._ZN5boost12interprocess27basic_managed_shared_memoryIcNS0_15rbtree_best_fitINS0_12mutex_familyENS0_10offset_ptrIvlmLm0EEELm0EEENS0_10iset_indexEED2Ev,"axG",@progbits,_ZN5boost12interprocess27basic_managed_shared_memoryIcNS0_15rbtree_best_fitINS0_12mutex_familyENS0_10offset_ptrIvlmLm0EEELm0EEENS0_10iset_indexEED2Ev,comdat
	.weak	_ZN5boost12interprocess27basic_managed_shared_memoryIcNS0_15rbtree_best_fitINS0_12mutex_familyENS0_10offset_ptrIvlmLm0EEELm0EEENS0_10iset_indexEED2Ev # -- Begin function _ZN5boost12interprocess27basic_managed_shared_memoryIcNS0_15rbtree_best_fitINS0_12mutex_familyENS0_10offset_ptrIvlmLm0EEELm0EEENS0_10iset_indexEED2Ev
	.p2align	4, 0x90
	.type	_ZN5boost12interprocess27basic_managed_shared_memoryIcNS0_15rbtree_best_fitINS0_12mutex_familyENS0_10offset_ptrIvlmLm0EEELm0EEENS0_10iset_indexEED2Ev,@function
_ZN5boost12interprocess27basic_managed_shared_memoryIcNS0_15rbtree_best_fitINS0_12mutex_familyENS0_10offset_ptrIvlmLm0EEELm0EEENS0_10iset_indexEED2Ev: # @_ZN5boost12interprocess27basic_managed_shared_memoryIcNS0_15rbtree_best_fitINS0_12mutex_familyENS0_10offset_ptrIvlmLm0EEELm0EEENS0_10iset_indexEED2Ev
	.cfi_startproc
# %bb.0:
	pushq	%rbp
	.cfi_def_cfa_offset 16
	.cfi_offset %rbp, -16
	movq	%rsp, %rbp
	.cfi_def_cfa_register %rbp
	subq	$16, %rsp
	movq	%rdi, -8(%rbp)
	movq	-8(%rbp), %rax
	movq	%rax, %rcx
	addq	$8, %rcx
	movq	%rcx, %rdi
	movq	%rax, -16(%rbp)         # 8-byte Spill
	callq	_ZN5boost12interprocess9ipcdetail27managed_open_or_create_implINS0_20shared_memory_objectELm16ELb1ELb0EED2Ev
	movq	-16(%rbp), %rax         # 8-byte Reload
	movq	%rax, %rdi
	callq	_ZN5boost12interprocess9ipcdetail25basic_managed_memory_implIcNS0_15rbtree_best_fitINS0_12mutex_familyENS0_10offset_ptrIvlmLm0EEELm0EEENS0_10iset_indexELm16EED2Ev
	addq	$16, %rsp
	popq	%rbp
	.cfi_def_cfa %rsp, 8
	retq
.Lfunc_end6:
	.size	_ZN5boost12interprocess27basic_managed_shared_memoryIcNS0_15rbtree_best_fitINS0_12mutex_familyENS0_10offset_ptrIvlmLm0EEELm0EEENS0_10iset_indexEED2Ev, .Lfunc_end6-_ZN5boost12interprocess27basic_managed_shared_memoryIcNS0_15rbtree_best_fitINS0_12mutex_familyENS0_10offset_ptrIvlmLm0EEELm0EEENS0_10iset_indexEED2Ev
	.cfi_endproc
                                        # -- End function
	.section	.text.startup,"ax",@progbits
	.p2align	4, 0x90         # -- Begin function __cxx_global_var_init.3
	.type	__cxx_global_var_init.3,@function
__cxx_global_var_init.3:                # @__cxx_global_var_init.3
	.cfi_startproc
# %bb.0:
	pushq	%rbp
	.cfi_def_cfa_offset 16
	.cfi_offset %rbp, -16
	movq	%rsp, %rbp
	.cfi_def_cfa_register %rbp
	movabsq	$mem_manager, %rdi
	callq	_ZN5boost12interprocess10offset_ptrINS_9container6vectorI8mem_infoNS0_9allocatorIS4_NS0_15segment_managerIcNS0_15rbtree_best_fitINS0_12mutex_familyENS1_IvlmLm0EEELm0EEENS0_10iset_indexEEEEEvEElmLm0EEC2Ev
	popq	%rbp
	.cfi_def_cfa %rsp, 8
	retq
.Lfunc_end7:
	.size	__cxx_global_var_init.3, .Lfunc_end7-__cxx_global_var_init.3
	.cfi_endproc
                                        # -- End function
	.section	.text._ZN5boost12interprocess10offset_ptrINS_9container6vectorI8mem_infoNS0_9allocatorIS4_NS0_15segment_managerIcNS0_15rbtree_best_fitINS0_12mutex_familyENS1_IvlmLm0EEELm0EEENS0_10iset_indexEEEEEvEElmLm0EEC2Ev,"axG",@progbits,_ZN5boost12interprocess10offset_ptrINS_9container6vectorI8mem_infoNS0_9allocatorIS4_NS0_15segment_managerIcNS0_15rbtree_best_fitINS0_12mutex_familyENS1_IvlmLm0EEELm0EEENS0_10iset_indexEEEEEvEElmLm0EEC2Ev,comdat
	.weak	_ZN5boost12interprocess10offset_ptrINS_9container6vectorI8mem_infoNS0_9allocatorIS4_NS0_15segment_managerIcNS0_15rbtree_best_fitINS0_12mutex_familyENS1_IvlmLm0EEELm0EEENS0_10iset_indexEEEEEvEElmLm0EEC2Ev # -- Begin function _ZN5boost12interprocess10offset_ptrINS_9container6vectorI8mem_infoNS0_9allocatorIS4_NS0_15segment_managerIcNS0_15rbtree_best_fitINS0_12mutex_familyENS1_IvlmLm0EEELm0EEENS0_10iset_indexEEEEEvEElmLm0EEC2Ev
	.p2align	4, 0x90
	.type	_ZN5boost12interprocess10offset_ptrINS_9container6vectorI8mem_infoNS0_9allocatorIS4_NS0_15segment_managerIcNS0_15rbtree_best_fitINS0_12mutex_familyENS1_IvlmLm0EEELm0EEENS0_10iset_indexEEEEEvEElmLm0EEC2Ev,@function
_ZN5boost12interprocess10offset_ptrINS_9container6vectorI8mem_infoNS0_9allocatorIS4_NS0_15segment_managerIcNS0_15rbtree_best_fitINS0_12mutex_familyENS1_IvlmLm0EEELm0EEENS0_10iset_indexEEEEEvEElmLm0EEC2Ev: # @_ZN5boost12interprocess10offset_ptrINS_9container6vectorI8mem_infoNS0_9allocatorIS4_NS0_15segment_managerIcNS0_15rbtree_best_fitINS0_12mutex_familyENS1_IvlmLm0EEELm0EEENS0_10iset_indexEEEEEvEElmLm0EEC2Ev
.Lfunc_begin1:
	.cfi_startproc
	.cfi_personality 3, __gxx_personality_v0
	.cfi_lsda 3, .Lexception1
# %bb.0:
	pushq	%rbp
	.cfi_def_cfa_offset 16
	.cfi_offset %rbp, -16
	movq	%rsp, %rbp
	.cfi_def_cfa_register %rbp
	subq	$16, %rsp
	movq	%rdi, -8(%rbp)
	movq	-8(%rbp), %rdi
.Ltmp3:
	movl	$1, %esi
	callq	_ZN5boost12interprocess9ipcdetail19offset_ptr_internalImLm0EEC2Em
.Ltmp4:
	jmp	.LBB8_1
.LBB8_1:
	addq	$16, %rsp
	popq	%rbp
	.cfi_def_cfa %rsp, 8
	retq
.LBB8_2:
	.cfi_def_cfa %rbp, 16
.Ltmp5:
                                        # kill: def $edx killed $edx killed $rdx
	movq	%rax, %rdi
	movl	%edx, -12(%rbp)         # 4-byte Spill
	callq	__clang_call_terminate
.Lfunc_end8:
	.size	_ZN5boost12interprocess10offset_ptrINS_9container6vectorI8mem_infoNS0_9allocatorIS4_NS0_15segment_managerIcNS0_15rbtree_best_fitINS0_12mutex_familyENS1_IvlmLm0EEELm0EEENS0_10iset_indexEEEEEvEElmLm0EEC2Ev, .Lfunc_end8-_ZN5boost12interprocess10offset_ptrINS_9container6vectorI8mem_infoNS0_9allocatorIS4_NS0_15segment_managerIcNS0_15rbtree_best_fitINS0_12mutex_familyENS1_IvlmLm0EEELm0EEENS0_10iset_indexEEEEEvEElmLm0EEC2Ev
	.cfi_endproc
	.section	.gcc_except_table,"a",@progbits
	.p2align	2
GCC_except_table8:
.Lexception1:
	.byte	255                     # @LPStart Encoding = omit
	.byte	3                       # @TType Encoding = udata4
	.uleb128 .Lttbase0-.Lttbaseref0
.Lttbaseref0:
	.byte	1                       # Call site Encoding = uleb128
	.uleb128 .Lcst_end1-.Lcst_begin1
.Lcst_begin1:
	.uleb128 .Ltmp3-.Lfunc_begin1   # >> Call Site 1 <<
	.uleb128 .Ltmp4-.Ltmp3          #   Call between .Ltmp3 and .Ltmp4
	.uleb128 .Ltmp5-.Lfunc_begin1   #     jumps to .Ltmp5
	.byte	1                       #   On action: 1
.Lcst_end1:
	.byte	1                       # >> Action Record 1 <<
                                        #   Catch TypeInfo 1
	.byte	0                       #   No further actions
	.p2align	2
                                        # >> Catch TypeInfos <<
	.long	0                       # TypeInfo 1
.Lttbase0:
	.p2align	2
                                        # -- End function
	.section	.text.startup,"ax",@progbits
	.p2align	4, 0x90         # -- Begin function __cxx_global_var_init.4
	.type	__cxx_global_var_init.4,@function
__cxx_global_var_init.4:                # @__cxx_global_var_init.4
	.cfi_startproc
# %bb.0:
	pushq	%rbp
	.cfi_def_cfa_offset 16
	.cfi_offset %rbp, -16
	movq	%rsp, %rbp
	.cfi_def_cfa_register %rbp
	movabsq	$mh, %rdi
	callq	_ZN14manager_helperC2Ev
	movabsq	$_ZN14manager_helperD2Ev, %rax
	movq	%rax, %rdi
	movabsq	$mh, %rsi
	movabsq	$__dso_handle, %rdx
	callq	__cxa_atexit
	popq	%rbp
	.cfi_def_cfa %rsp, 8
	retq
.Lfunc_end9:
	.size	__cxx_global_var_init.4, .Lfunc_end9-__cxx_global_var_init.4
	.cfi_endproc
                                        # -- End function
	.section	.text._ZN14manager_helperC2Ev,"axG",@progbits,_ZN14manager_helperC2Ev,comdat
	.weak	_ZN14manager_helperC2Ev # -- Begin function _ZN14manager_helperC2Ev
	.p2align	4, 0x90
	.type	_ZN14manager_helperC2Ev,@function
_ZN14manager_helperC2Ev:                # @_ZN14manager_helperC2Ev
.Lfunc_begin2:
	.cfi_startproc
	.cfi_personality 3, __gxx_personality_v0
	.cfi_lsda 3, .Lexception2
# %bb.0:
	pushq	%rbp
	.cfi_def_cfa_offset 16
	.cfi_offset %rbp, -16
	movq	%rsp, %rbp
	.cfi_def_cfa_register %rbp
	subq	$336, %rsp              # imm = 0x150
	movq	%rdi, -96(%rbp)
	leaq	-152(%rbp), %rax
	movq	%rax, %rdi
	movq	%rax, -280(%rbp)        # 8-byte Spill
	callq	_ZN5boost12interprocess11permissionsC2Ev
	movl	$.L.str.13, %esi
	xorl	%ecx, %ecx
                                        # kill: def $rcx killed $ecx
	leaq	-136(%rbp), %rax
	movl	$65536, %edx            # imm = 0x10000
	movq	%rax, %rdi
	movq	-280(%rbp), %r8         # 8-byte Reload
	movq	%rax, -288(%rbp)        # 8-byte Spill
	callq	_ZN5boost12interprocess27basic_managed_shared_memoryIcNS0_15rbtree_best_fitINS0_12mutex_familyENS0_10offset_ptrIvlmLm0EEELm0EEENS0_10iset_indexEEC2ENS0_16open_or_create_tEPKcmPKvRKNS0_11permissionsE
.Ltmp6:
	movl	$segment, %edi
	movq	-288(%rbp), %rsi        # 8-byte Reload
	callq	_ZN5boost12interprocess27basic_managed_shared_memoryIcNS0_15rbtree_best_fitINS0_12mutex_familyENS0_10offset_ptrIvlmLm0EEELm0EEENS0_10iset_indexEEaSEOS8_
.Ltmp7:
	jmp	.LBB10_1
.LBB10_1:
	leaq	-136(%rbp), %rdi
	callq	_ZN5boost12interprocess27basic_managed_shared_memoryIcNS0_15rbtree_best_fitINS0_12mutex_familyENS0_10offset_ptrIvlmLm0EEELm0EEENS0_10iset_indexEED2Ev
	movabsq	$segment, %rdi
	callq	_ZNK5boost12interprocess9ipcdetail25basic_managed_memory_implIcNS0_15rbtree_best_fitINS0_12mutex_familyENS0_10offset_ptrIvlmLm0EEELm0EEENS0_10iset_indexELm16EE19get_segment_managerEv
	leaq	-176(%rbp), %rdi
	movq	%rax, %rsi
	callq	_ZN5boost12interprocess9allocatorI8mem_infoNS0_15segment_managerIcNS0_15rbtree_best_fitINS0_12mutex_familyENS0_10offset_ptrIvlmLm0EEELm0EEENS0_10iset_indexEEEEC2EPSA_
	leaq	-216(%rbp), %rdi
	movabsq	$.L.str.14, %rsi
	callq	_ZN5boost12interprocess9ipcdetail15char_ptr_holderIcEC2EPKc
	movq	-216(%rbp), %rdx
	leaq	-208(%rbp), %rdi
	movabsq	$segment, %rsi
	callq	_ZN5boost12interprocess9ipcdetail25basic_managed_memory_implIcNS0_15rbtree_best_fitINS0_12mutex_familyENS0_10offset_ptrIvlmLm0EEELm0EEENS0_10iset_indexELm16EE17find_or_constructINS_9container6vectorI8mem_infoNS0_9allocatorISD_NS0_15segment_managerIcS7_S8_EEEEvEEEENSG_15construct_proxyIT_E4typeENS1_15char_ptr_holderIcEE
	leaq	-208(%rbp), %rdi
	leaq	-176(%rbp), %rsi
	callq	_ZNK5boost12interprocess9ipcdetail11named_proxyINS0_15segment_managerIcNS0_15rbtree_best_fitINS0_12mutex_familyENS0_10offset_ptrIvlmLm0EEELm0EEENS0_10iset_indexEEENS_9container6vectorI8mem_infoNS0_9allocatorISD_SA_EEvEELb0EEclIJRKSF_EEEPSG_DpOT_
	movabsq	$mem_manager, %rdi
	movq	%rax, %rsi
	callq	_ZN5boost12interprocess10offset_ptrINS_9container6vectorI8mem_infoNS0_9allocatorIS4_NS0_15segment_managerIcNS0_15rbtree_best_fitINS0_12mutex_familyENS1_IvlmLm0EEELm0EEENS0_10iset_indexEEEEEvEElmLm0EEaSEPSE_
	movabsq	$segment, %rdi
	movl	$4, %esi
	movq	%rax, -296(%rbp)        # 8-byte Spill
	callq	_ZN5boost12interprocess9ipcdetail25basic_managed_memory_implIcNS0_15rbtree_best_fitINS0_12mutex_familyENS0_10offset_ptrIvlmLm0EEELm0EEENS0_10iset_indexELm16EE8allocateEm
	movq	%rax, process_num
	leaq	-256(%rbp), %rdi
	movabsq	$.L.str.15, %rsi
	callq	_ZN5boost12interprocess9ipcdetail15char_ptr_holderIcEC2EPKc
	movq	-256(%rbp), %rdx
	leaq	-248(%rbp), %rdi
	movabsq	$segment, %rsi
	callq	_ZN5boost12interprocess9ipcdetail25basic_managed_memory_implIcNS0_15rbtree_best_fitINS0_12mutex_familyENS0_10offset_ptrIvlmLm0EEELm0EEENS0_10iset_indexELm16EE17find_or_constructINS0_18interprocess_mutexEEENS0_15segment_managerIcS7_S8_E15construct_proxyIT_E4typeENS1_15char_ptr_holderIcEE
	leaq	-248(%rbp), %rdi
	callq	_ZNK5boost12interprocess9ipcdetail11named_proxyINS0_15segment_managerIcNS0_15rbtree_best_fitINS0_12mutex_familyENS0_10offset_ptrIvlmLm0EEELm0EEENS0_10iset_indexEEENS0_18interprocess_mutexELb0EEclIJEEEPSB_DpOT_
	movq	%rax, mtx
	movq	process_num, %rax
	movq	%rax, -80(%rbp)
	movl	$0, -84(%rbp)
	movq	-80(%rbp), %rax
	movl	-84(%rbp), %ecx
	movq	%rax, -64(%rbp)
	movl	%ecx, -68(%rbp)
	movl	$14, -72(%rbp)
	movq	-64(%rbp), %rax
	cmpl	$1, -72(%rbp)
	movq	%rax, -304(%rbp)        # 8-byte Spill
	je	.LBB10_3
# %bb.2:
	cmpl	$2, -72(%rbp)
	jne	.LBB10_4
	jmp	.LBB10_5
.LBB10_3:
	movabsq	$.L.str.93, %rdi
	movabsq	$.L.str.94, %rsi
	movl	$326, %edx              # imm = 0x146
	movabsq	$.L__PRETTY_FUNCTION__._ZNV5boost7atomics6detail11base_atomicIiiE5storeEiNS_12memory_orderE, %rcx
	callq	__assert_fail
.LBB10_4:
	cmpl	$6, -72(%rbp)
	jne	.LBB10_6
	jmp	.LBB10_7
.LBB10_5:
	movabsq	$.L.str.95, %rdi
	movabsq	$.L.str.94, %rsi
	movl	$327, %edx              # imm = 0x147
	movabsq	$.L__PRETTY_FUNCTION__._ZNV5boost7atomics6detail11base_atomicIiiE5storeEiNS_12memory_orderE, %rcx
	callq	__assert_fail
.LBB10_6:
	movl	-68(%rbp), %eax
	movl	%eax, -56(%rbp)
	movl	-56(%rbp), %eax
	movl	%eax, -52(%rbp)
	movl	-52(%rbp), %eax
	movl	%eax, -48(%rbp)
	movl	-48(%rbp), %eax
	movl	%eax, -44(%rbp)
	movl	-44(%rbp), %eax
	movl	%eax, -40(%rbp)
	movl	-40(%rbp), %eax
	movl	%eax, -36(%rbp)
	movl	-36(%rbp), %eax
	movl	%eax, -32(%rbp)
	movl	-32(%rbp), %eax
	movl	-72(%rbp), %ecx
	movq	-304(%rbp), %rdx        # 8-byte Reload
	movq	%rdx, -16(%rbp)
	movl	%eax, -20(%rbp)
	movl	%ecx, -24(%rbp)
	movq	-16(%rbp), %rsi
	movl	-24(%rbp), %eax
	movl	%eax, -4(%rbp)
	cmpl	$0, -4(%rbp)
	movq	%rsi, -312(%rbp)        # 8-byte Spill
	je	.LBB10_8
	jmp	.LBB10_9
.LBB10_7:
	movabsq	$.L.str.96, %rdi
	movabsq	$.L.str.94, %rsi
	movl	$328, %edx              # imm = 0x148
	movabsq	$.L__PRETTY_FUNCTION__._ZNV5boost7atomics6detail11base_atomicIiiE5storeEiNS_12memory_orderE, %rcx
	callq	__assert_fail
.LBB10_8:
	xorl	%eax, %eax
	movl	%eax, -316(%rbp)        # 4-byte Spill
	jmp	.LBB10_19
.LBB10_9:
	cmpl	$1, -4(%rbp)
	jne	.LBB10_11
# %bb.10:
	movl	$1, %eax
	movl	%eax, -320(%rbp)        # 4-byte Spill
	jmp	.LBB10_18
.LBB10_11:
	cmpl	$2, -4(%rbp)
	jne	.LBB10_13
# %bb.12:
	movl	$2, %eax
	movl	%eax, -324(%rbp)        # 4-byte Spill
	jmp	.LBB10_17
.LBB10_13:
	cmpl	$4, -4(%rbp)
	jne	.LBB10_15
# %bb.14:
	movl	$3, %eax
	movl	%eax, -328(%rbp)        # 4-byte Spill
	jmp	.LBB10_16
.LBB10_15:
	movl	-4(%rbp), %eax
	cmpl	$6, %eax
	movl	$4, %eax
	movl	$5, %ecx
	cmovel	%eax, %ecx
	movl	%ecx, -328(%rbp)        # 4-byte Spill
.LBB10_16:
	movl	-328(%rbp), %eax        # 4-byte Reload
	movl	%eax, -324(%rbp)        # 4-byte Spill
.LBB10_17:
	movl	-324(%rbp), %eax        # 4-byte Reload
	movl	%eax, -320(%rbp)        # 4-byte Spill
.LBB10_18:
	movl	-320(%rbp), %eax        # 4-byte Reload
	movl	%eax, -316(%rbp)        # 4-byte Spill
.LBB10_19:
	movl	-316(%rbp), %eax        # 4-byte Reload
	movl	-20(%rbp), %ecx
	movl	%ecx, -28(%rbp)
	movl	%eax, %ecx
	subl	$3, %ecx
	movl	%eax, -332(%rbp)        # 4-byte Spill
	je	.LBB10_21
	jmp	.LBB10_28
.LBB10_28:
	movl	-332(%rbp), %eax        # 4-byte Reload
	subl	$5, %eax
	je	.LBB10_22
	jmp	.LBB10_20
.LBB10_20:
	movl	-28(%rbp), %eax
	movq	-312(%rbp), %rcx        # 8-byte Reload
	movl	%eax, (%rcx)
	jmp	.LBB10_23
.LBB10_21:
	movl	-28(%rbp), %eax
	movq	-312(%rbp), %rcx        # 8-byte Reload
	movl	%eax, (%rcx)
	jmp	.LBB10_23
.LBB10_22:
	movl	-28(%rbp), %eax
	movq	-312(%rbp), %rcx        # 8-byte Reload
	xchgl	%eax, (%rcx)
.LBB10_23:
	xorl	%esi, %esi
	leaq	-272(%rbp), %rdi
	movl	$1073741824, %edx       # imm = 0x40000000
	callq	_ZN8mem_infoC2Eii
	movq	mtx, %rdi
	callq	_ZN5boost12interprocess18interprocess_mutex4lockEv
	movabsq	$mem_manager, %rdi
	callq	_ZNK5boost12interprocess10offset_ptrINS_9container6vectorI8mem_infoNS0_9allocatorIS4_NS0_15segment_managerIcNS0_15rbtree_best_fitINS0_12mutex_familyENS1_IvlmLm0EEELm0EEENS0_10iset_indexEEEEEvEElmLm0EEptEv
	movq	%rax, %rdi
	callq	_ZNK5boost9container6vectorI8mem_infoNS_12interprocess9allocatorIS2_NS3_15segment_managerIcNS3_15rbtree_best_fitINS3_12mutex_familyENS3_10offset_ptrIvlmLm0EEELm0EEENS3_10iset_indexEEEEEvE4sizeEv
	cmpq	$0, %rax
	jne	.LBB10_26
# %bb.24:
	movabsq	$mem_manager, %rdi
	callq	_ZNK5boost12interprocess10offset_ptrINS_9container6vectorI8mem_infoNS0_9allocatorIS4_NS0_15segment_managerIcNS0_15rbtree_best_fitINS0_12mutex_familyENS1_IvlmLm0EEELm0EEENS0_10iset_indexEEEEEvEElmLm0EEptEv
	movq	%rax, %rdi
	leaq	-272(%rbp), %rsi
	callq	_ZN5boost9container6vectorI8mem_infoNS_12interprocess9allocatorIS2_NS3_15segment_managerIcNS3_15rbtree_best_fitINS3_12mutex_familyENS3_10offset_ptrIvlmLm0EEELm0EEENS3_10iset_indexEEEEEvE9push_backERKS2_
	jmp	.LBB10_26
.LBB10_25:
.Ltmp8:
                                        # kill: def $edx killed $edx killed $rdx
	movq	%rax, -160(%rbp)
	movl	%edx, -164(%rbp)
	leaq	-136(%rbp), %rdi
	callq	_ZN5boost12interprocess27basic_managed_shared_memoryIcNS0_15rbtree_best_fitINS0_12mutex_familyENS0_10offset_ptrIvlmLm0EEELm0EEENS0_10iset_indexEED2Ev
	jmp	.LBB10_27
.LBB10_26:
	movq	mtx, %rdi
	callq	_ZN5boost12interprocess18interprocess_mutex6unlockEv
	addq	$336, %rsp              # imm = 0x150
	popq	%rbp
	.cfi_def_cfa %rsp, 8
	retq
.LBB10_27:
	.cfi_def_cfa %rbp, 16
	movq	-160(%rbp), %rdi
	callq	_Unwind_Resume
.Lfunc_end10:
	.size	_ZN14manager_helperC2Ev, .Lfunc_end10-_ZN14manager_helperC2Ev
	.cfi_endproc
	.section	.gcc_except_table,"a",@progbits
	.p2align	2
GCC_except_table10:
.Lexception2:
	.byte	255                     # @LPStart Encoding = omit
	.byte	255                     # @TType Encoding = omit
	.byte	1                       # Call site Encoding = uleb128
	.uleb128 .Lcst_end2-.Lcst_begin2
.Lcst_begin2:
	.uleb128 .Lfunc_begin2-.Lfunc_begin2 # >> Call Site 1 <<
	.uleb128 .Ltmp6-.Lfunc_begin2   #   Call between .Lfunc_begin2 and .Ltmp6
	.byte	0                       #     has no landing pad
	.byte	0                       #   On action: cleanup
	.uleb128 .Ltmp6-.Lfunc_begin2   # >> Call Site 2 <<
	.uleb128 .Ltmp7-.Ltmp6          #   Call between .Ltmp6 and .Ltmp7
	.uleb128 .Ltmp8-.Lfunc_begin2   #     jumps to .Ltmp8
	.byte	0                       #   On action: cleanup
	.uleb128 .Ltmp7-.Lfunc_begin2   # >> Call Site 3 <<
	.uleb128 .Lfunc_end10-.Ltmp7    #   Call between .Ltmp7 and .Lfunc_end10
	.byte	0                       #     has no landing pad
	.byte	0                       #   On action: cleanup
.Lcst_end2:
	.p2align	2
                                        # -- End function
	.section	.text._ZN14manager_helperD2Ev,"axG",@progbits,_ZN14manager_helperD2Ev,comdat
	.weak	_ZN14manager_helperD2Ev # -- Begin function _ZN14manager_helperD2Ev
	.p2align	4, 0x90
	.type	_ZN14manager_helperD2Ev,@function
_ZN14manager_helperD2Ev:                # @_ZN14manager_helperD2Ev
	.cfi_startproc
# %bb.0:
	pushq	%rbp
	.cfi_def_cfa_offset 16
	.cfi_offset %rbp, -16
	movq	%rsp, %rbp
	.cfi_def_cfa_register %rbp
	movq	%rdi, -8(%rbp)
	popq	%rbp
	.cfi_def_cfa %rsp, 8
	retq
.Lfunc_end11:
	.size	_ZN14manager_helperD2Ev, .Lfunc_end11-_ZN14manager_helperD2Ev
	.cfi_endproc
                                        # -- End function
	.text
	.globl	_Z13addProcessNumv      # -- Begin function _Z13addProcessNumv
	.p2align	4, 0x90
	.type	_Z13addProcessNumv,@function
_Z13addProcessNumv:                     # @_Z13addProcessNumv
	.cfi_startproc
# %bb.0:
	pushq	%rbp
	.cfi_def_cfa_offset 16
	.cfi_offset %rbp, -16
	movq	%rsp, %rbp
	.cfi_def_cfa_register %rbp
	subq	$56, %rsp
	movq	process_num, %rax
	movq	%rax, -136(%rbp)
	movl	$1, -140(%rbp)
	movl	$14, -144(%rbp)
	movq	-136(%rbp), %rax
	movl	-140(%rbp), %ecx
	movl	%ecx, -124(%rbp)
	movl	-124(%rbp), %ecx
	movl	%ecx, -120(%rbp)
	movl	-120(%rbp), %ecx
	movl	%ecx, -116(%rbp)
	movl	-116(%rbp), %ecx
	movl	%ecx, -112(%rbp)
	movl	-112(%rbp), %ecx
	movl	%ecx, -108(%rbp)
	movl	-108(%rbp), %ecx
	movl	%ecx, -104(%rbp)
	movl	-104(%rbp), %ecx
	movl	%ecx, -100(%rbp)
	movl	-100(%rbp), %ecx
	movl	-144(%rbp), %edx
	movq	%rax, -16(%rbp)
	movl	%ecx, -20(%rbp)
	movl	%edx, -24(%rbp)
	movq	-16(%rbp), %rax
	movl	-24(%rbp), %ecx
	movl	%ecx, -4(%rbp)
	cmpl	$0, -4(%rbp)
	movq	%rax, -160(%rbp)        # 8-byte Spill
	jne	.LBB12_2
# %bb.1:
	xorl	%eax, %eax
	movl	%eax, -164(%rbp)        # 4-byte Spill
	jmp	.LBB12_12
.LBB12_2:
	cmpl	$1, -4(%rbp)
	jne	.LBB12_4
# %bb.3:
	movl	$1, %eax
	movl	%eax, -168(%rbp)        # 4-byte Spill
	jmp	.LBB12_11
.LBB12_4:
	cmpl	$2, -4(%rbp)
	jne	.LBB12_6
# %bb.5:
	movl	$2, %eax
	movl	%eax, -172(%rbp)        # 4-byte Spill
	jmp	.LBB12_10
.LBB12_6:
	cmpl	$4, -4(%rbp)
	jne	.LBB12_8
# %bb.7:
	movl	$3, %eax
	movl	%eax, -176(%rbp)        # 4-byte Spill
	jmp	.LBB12_9
.LBB12_8:
	movl	-4(%rbp), %eax
	cmpl	$6, %eax
	movl	$4, %eax
	movl	$5, %ecx
	cmovel	%eax, %ecx
	movl	%ecx, -176(%rbp)        # 4-byte Spill
.LBB12_9:
	movl	-176(%rbp), %eax        # 4-byte Reload
	movl	%eax, -172(%rbp)        # 4-byte Spill
.LBB12_10:
	movl	-172(%rbp), %eax        # 4-byte Reload
	movl	%eax, -168(%rbp)        # 4-byte Spill
.LBB12_11:
	movl	-168(%rbp), %eax        # 4-byte Reload
	movl	%eax, -164(%rbp)        # 4-byte Spill
.LBB12_12:
	movl	-164(%rbp), %eax        # 4-byte Reload
	movl	-20(%rbp), %ecx
	movl	%ecx, -28(%rbp)
	addl	$-1, %eax
	movl	%eax, %edx
	subl	$4, %eax
	movq	%rdx, -184(%rbp)        # 8-byte Spill
	ja	.LBB12_13
# %bb.19:
	movq	-184(%rbp), %rax        # 8-byte Reload
	movq	.LJTI12_0(,%rax,8), %rcx
	jmpq	*%rcx
.LBB12_13:
	movl	-28(%rbp), %eax
	movq	-160(%rbp), %rcx        # 8-byte Reload
	lock		xaddl	%eax, (%rcx)
	movl	%eax, -32(%rbp)
	jmp	.LBB12_18
.LBB12_14:
	movl	-28(%rbp), %eax
	movq	-160(%rbp), %rcx        # 8-byte Reload
	lock		xaddl	%eax, (%rcx)
	movl	%eax, -32(%rbp)
	jmp	.LBB12_18
.LBB12_15:
	movl	-28(%rbp), %eax
	movq	-160(%rbp), %rcx        # 8-byte Reload
	lock		xaddl	%eax, (%rcx)
	movl	%eax, -32(%rbp)
	jmp	.LBB12_18
.LBB12_16:
	movl	-28(%rbp), %eax
	movq	-160(%rbp), %rcx        # 8-byte Reload
	lock		xaddl	%eax, (%rcx)
	movl	%eax, -32(%rbp)
	jmp	.LBB12_18
.LBB12_17:
	movl	-28(%rbp), %eax
	movq	-160(%rbp), %rcx        # 8-byte Reload
	lock		xaddl	%eax, (%rcx)
	movl	%eax, -32(%rbp)
.LBB12_18:
	movl	-32(%rbp), %eax
	movl	%eax, -96(%rbp)
	movl	-96(%rbp), %eax
	movl	%eax, -92(%rbp)
	movl	-92(%rbp), %eax
	movl	%eax, -84(%rbp)
	movl	-84(%rbp), %eax
	movl	%eax, -88(%rbp)
	leaq	-88(%rbp), %rcx
	movq	%rcx, -80(%rbp)
	movq	-80(%rbp), %rcx
	movq	%rcx, -64(%rbp)
	leaq	-68(%rbp), %rcx
	movq	%rcx, -56(%rbp)
	movq	-56(%rbp), %rdx
	movq	-64(%rbp), %rsi
	movq	%rsi, -40(%rbp)
	movq	-40(%rbp), %rsi
	movl	(%rsi), %eax
	movl	%eax, (%rdx)
	movq	%rcx, -48(%rbp)
	movl	-68(%rbp), %eax
	movl	%eax, -148(%rbp)
	movl	-148(%rbp), %eax
	addl	$1, %eax
	addq	$56, %rsp
	popq	%rbp
	.cfi_def_cfa %rsp, 8
	retq
.Lfunc_end12:
	.size	_Z13addProcessNumv, .Lfunc_end12-_Z13addProcessNumv
	.cfi_endproc
	.section	.rodata,"a",@progbits
	.p2align	3
.LJTI12_0:
	.quad	.LBB12_14
	.quad	.LBB12_14
	.quad	.LBB12_15
	.quad	.LBB12_16
	.quad	.LBB12_17
                                        # -- End function
	.text
	.globl	_Z16setProcessNumOnev   # -- Begin function _Z16setProcessNumOnev
	.p2align	4, 0x90
	.type	_Z16setProcessNumOnev,@function
_Z16setProcessNumOnev:                  # @_Z16setProcessNumOnev
	.cfi_startproc
# %bb.0:
	pushq	%rbp
	.cfi_def_cfa_offset 16
	.cfi_offset %rbp, -16
	movq	%rsp, %rbp
	.cfi_def_cfa_register %rbp
	subq	$112, %rsp
	movq	process_num, %rax
	movq	%rax, -64(%rbp)
	movl	$1, -68(%rbp)
	movl	$14, -72(%rbp)
	movq	-64(%rbp), %rax
	cmpl	$1, -72(%rbp)
	movq	%rax, -80(%rbp)         # 8-byte Spill
	je	.LBB13_2
# %bb.1:
	cmpl	$2, -72(%rbp)
	jne	.LBB13_3
	jmp	.LBB13_4
.LBB13_2:
	movabsq	$.L.str.93, %rdi
	movabsq	$.L.str.94, %rsi
	movl	$326, %edx              # imm = 0x146
	movabsq	$.L__PRETTY_FUNCTION__._ZNV5boost7atomics6detail11base_atomicIiiE5storeEiNS_12memory_orderE, %rcx
	callq	__assert_fail
.LBB13_3:
	cmpl	$6, -72(%rbp)
	jne	.LBB13_5
	jmp	.LBB13_6
.LBB13_4:
	movabsq	$.L.str.95, %rdi
	movabsq	$.L.str.94, %rsi
	movl	$327, %edx              # imm = 0x147
	movabsq	$.L__PRETTY_FUNCTION__._ZNV5boost7atomics6detail11base_atomicIiiE5storeEiNS_12memory_orderE, %rcx
	callq	__assert_fail
.LBB13_5:
	movl	-68(%rbp), %eax
	movl	%eax, -56(%rbp)
	movl	-56(%rbp), %eax
	movl	%eax, -52(%rbp)
	movl	-52(%rbp), %eax
	movl	%eax, -48(%rbp)
	movl	-48(%rbp), %eax
	movl	%eax, -44(%rbp)
	movl	-44(%rbp), %eax
	movl	%eax, -40(%rbp)
	movl	-40(%rbp), %eax
	movl	%eax, -36(%rbp)
	movl	-36(%rbp), %eax
	movl	%eax, -32(%rbp)
	movl	-32(%rbp), %eax
	movl	-72(%rbp), %ecx
	movq	-80(%rbp), %rdx         # 8-byte Reload
	movq	%rdx, -16(%rbp)
	movl	%eax, -20(%rbp)
	movl	%ecx, -24(%rbp)
	movq	-16(%rbp), %rsi
	movl	-24(%rbp), %eax
	movl	%eax, -4(%rbp)
	cmpl	$0, -4(%rbp)
	movq	%rsi, -88(%rbp)         # 8-byte Spill
	je	.LBB13_7
	jmp	.LBB13_8
.LBB13_6:
	movabsq	$.L.str.96, %rdi
	movabsq	$.L.str.94, %rsi
	movl	$328, %edx              # imm = 0x148
	movabsq	$.L__PRETTY_FUNCTION__._ZNV5boost7atomics6detail11base_atomicIiiE5storeEiNS_12memory_orderE, %rcx
	callq	__assert_fail
.LBB13_7:
	xorl	%eax, %eax
	movl	%eax, -92(%rbp)         # 4-byte Spill
	jmp	.LBB13_18
.LBB13_8:
	cmpl	$1, -4(%rbp)
	jne	.LBB13_10
# %bb.9:
	movl	$1, %eax
	movl	%eax, -96(%rbp)         # 4-byte Spill
	jmp	.LBB13_17
.LBB13_10:
	cmpl	$2, -4(%rbp)
	jne	.LBB13_12
# %bb.11:
	movl	$2, %eax
	movl	%eax, -100(%rbp)        # 4-byte Spill
	jmp	.LBB13_16
.LBB13_12:
	cmpl	$4, -4(%rbp)
	jne	.LBB13_14
# %bb.13:
	movl	$3, %eax
	movl	%eax, -104(%rbp)        # 4-byte Spill
	jmp	.LBB13_15
.LBB13_14:
	movl	-4(%rbp), %eax
	cmpl	$6, %eax
	movl	$4, %eax
	movl	$5, %ecx
	cmovel	%eax, %ecx
	movl	%ecx, -104(%rbp)        # 4-byte Spill
.LBB13_15:
	movl	-104(%rbp), %eax        # 4-byte Reload
	movl	%eax, -100(%rbp)        # 4-byte Spill
.LBB13_16:
	movl	-100(%rbp), %eax        # 4-byte Reload
	movl	%eax, -96(%rbp)         # 4-byte Spill
.LBB13_17:
	movl	-96(%rbp), %eax         # 4-byte Reload
	movl	%eax, -92(%rbp)         # 4-byte Spill
.LBB13_18:
	movl	-92(%rbp), %eax         # 4-byte Reload
	movl	-20(%rbp), %ecx
	movl	%ecx, -28(%rbp)
	movl	%eax, %ecx
	subl	$3, %ecx
	movl	%eax, -108(%rbp)        # 4-byte Spill
	je	.LBB13_20
	jmp	.LBB13_23
.LBB13_23:
	movl	-108(%rbp), %eax        # 4-byte Reload
	subl	$5, %eax
	je	.LBB13_21
	jmp	.LBB13_19
.LBB13_19:
	movl	-28(%rbp), %eax
	movq	-88(%rbp), %rcx         # 8-byte Reload
	movl	%eax, (%rcx)
	jmp	.LBB13_22
.LBB13_20:
	movl	-28(%rbp), %eax
	movq	-88(%rbp), %rcx         # 8-byte Reload
	movl	%eax, (%rcx)
	jmp	.LBB13_22
.LBB13_21:
	movl	-28(%rbp), %eax
	movq	-88(%rbp), %rcx         # 8-byte Reload
	xchgl	%eax, (%rcx)
.LBB13_22:
	movl	$1, %eax
	addq	$112, %rsp
	popq	%rbp
	.cfi_def_cfa %rsp, 8
	retq
.Lfunc_end13:
	.size	_Z16setProcessNumOnev, .Lfunc_end13-_Z16setProcessNumOnev
	.cfi_endproc
                                        # -- End function
	.globl	_Z13getProcessNumv      # -- Begin function _Z13getProcessNumv
	.p2align	4, 0x90
	.type	_Z13getProcessNumv,@function
_Z13getProcessNumv:                     # @_Z13getProcessNumv
	.cfi_startproc
# %bb.0:
	pushq	%rbp
	.cfi_def_cfa_offset 16
	.cfi_offset %rbp, -16
	movq	%rsp, %rbp
	.cfi_def_cfa_register %rbp
	subq	$144, %rsp
	movq	process_num, %rax
	movq	%rax, -96(%rbp)
	movl	$14, -100(%rbp)
	movq	-96(%rbp), %rax
	cmpl	$4, -100(%rbp)
	movq	%rax, -112(%rbp)        # 8-byte Spill
	je	.LBB14_2
# %bb.1:
	cmpl	$6, -100(%rbp)
	jne	.LBB14_3
	jmp	.LBB14_4
.LBB14_2:
	movabsq	$.L.str.97, %rdi
	movabsq	$.L.str.94, %rsi
	movl	$335, %edx              # imm = 0x14F
	movabsq	$.L__PRETTY_FUNCTION__._ZNVK5boost7atomics6detail11base_atomicIiiE4loadENS_12memory_orderE, %rcx
	callq	__assert_fail
.LBB14_3:
	movl	-100(%rbp), %eax
	movq	-112(%rbp), %rcx        # 8-byte Reload
	movq	%rcx, -80(%rbp)
	movl	%eax, -84(%rbp)
	movq	-80(%rbp), %rdx
	movl	-84(%rbp), %eax
	movl	%eax, -68(%rbp)
	cmpl	$0, -68(%rbp)
	movq	%rdx, -120(%rbp)        # 8-byte Spill
	je	.LBB14_5
	jmp	.LBB14_6
.LBB14_4:
	movabsq	$.L.str.96, %rdi
	movabsq	$.L.str.94, %rsi
	movl	$336, %edx              # imm = 0x150
	movabsq	$.L__PRETTY_FUNCTION__._ZNVK5boost7atomics6detail11base_atomicIiiE4loadENS_12memory_orderE, %rcx
	callq	__assert_fail
.LBB14_5:
	xorl	%eax, %eax
	movl	%eax, -124(%rbp)        # 4-byte Spill
	jmp	.LBB14_16
.LBB14_6:
	cmpl	$1, -68(%rbp)
	jne	.LBB14_8
# %bb.7:
	movl	$1, %eax
	movl	%eax, -128(%rbp)        # 4-byte Spill
	jmp	.LBB14_15
.LBB14_8:
	cmpl	$2, -68(%rbp)
	jne	.LBB14_10
# %bb.9:
	movl	$2, %eax
	movl	%eax, -132(%rbp)        # 4-byte Spill
	jmp	.LBB14_14
.LBB14_10:
	cmpl	$4, -68(%rbp)
	jne	.LBB14_12
# %bb.11:
	movl	$3, %eax
	movl	%eax, -136(%rbp)        # 4-byte Spill
	jmp	.LBB14_13
.LBB14_12:
	movl	-68(%rbp), %eax
	cmpl	$6, %eax
	movl	$4, %eax
	movl	$5, %ecx
	cmovel	%eax, %ecx
	movl	%ecx, -136(%rbp)        # 4-byte Spill
.LBB14_13:
	movl	-136(%rbp), %eax        # 4-byte Reload
	movl	%eax, -132(%rbp)        # 4-byte Spill
.LBB14_14:
	movl	-132(%rbp), %eax        # 4-byte Reload
	movl	%eax, -128(%rbp)        # 4-byte Spill
.LBB14_15:
	movl	-128(%rbp), %eax        # 4-byte Reload
	movl	%eax, -124(%rbp)        # 4-byte Spill
.LBB14_16:
	movl	-124(%rbp), %eax        # 4-byte Reload
	movl	%eax, %ecx
	addl	$-1, %ecx
	subl	$2, %ecx
	movl	%eax, -140(%rbp)        # 4-byte Spill
	jb	.LBB14_18
	jmp	.LBB14_21
.LBB14_21:
	movl	-140(%rbp), %eax        # 4-byte Reload
	subl	$5, %eax
	je	.LBB14_19
	jmp	.LBB14_17
.LBB14_17:
	movq	-120(%rbp), %rax        # 8-byte Reload
	movl	(%rax), %ecx
	movl	%ecx, -88(%rbp)
	jmp	.LBB14_20
.LBB14_18:
	movq	-120(%rbp), %rax        # 8-byte Reload
	movl	(%rax), %ecx
	movl	%ecx, -88(%rbp)
	jmp	.LBB14_20
.LBB14_19:
	movq	-120(%rbp), %rax        # 8-byte Reload
	movl	(%rax), %ecx
	movl	%ecx, -88(%rbp)
.LBB14_20:
	movl	-88(%rbp), %eax
	movl	%eax, -64(%rbp)
	movl	-64(%rbp), %eax
	movl	%eax, -60(%rbp)
	movl	-60(%rbp), %eax
	movl	%eax, -52(%rbp)
	movl	-52(%rbp), %eax
	movl	%eax, -56(%rbp)
	leaq	-56(%rbp), %rcx
	movq	%rcx, -48(%rbp)
	movq	-48(%rbp), %rcx
	movq	%rcx, -32(%rbp)
	leaq	-36(%rbp), %rcx
	movq	%rcx, -24(%rbp)
	movq	-24(%rbp), %rdx
	movq	-32(%rbp), %rsi
	movq	%rsi, -8(%rbp)
	movq	-8(%rbp), %rsi
	movl	(%rsi), %eax
	movl	%eax, (%rdx)
	movq	%rcx, -16(%rbp)
	movl	-36(%rbp), %eax
	addq	$144, %rsp
	popq	%rbp
	.cfi_def_cfa %rsp, 8
	retq
.Lfunc_end14:
	.size	_Z13getProcessNumv, .Lfunc_end14-_Z13getProcessNumv
	.cfi_endproc
                                        # -- End function
	.globl	_Z13subProcessNumv      # -- Begin function _Z13subProcessNumv
	.p2align	4, 0x90
	.type	_Z13subProcessNumv,@function
_Z13subProcessNumv:                     # @_Z13subProcessNumv
	.cfi_startproc
# %bb.0:
	pushq	%rbp
	.cfi_def_cfa_offset 16
	.cfi_offset %rbp, -16
	movq	%rsp, %rbp
	.cfi_def_cfa_register %rbp
	subq	$56, %rsp
	movq	process_num, %rax
	movq	%rax, -136(%rbp)
	movl	$1, -140(%rbp)
	movl	$14, -144(%rbp)
	movq	-136(%rbp), %rax
	movl	-140(%rbp), %ecx
	movl	%ecx, -124(%rbp)
	movl	-124(%rbp), %ecx
	movl	%ecx, -120(%rbp)
	movl	-120(%rbp), %ecx
	movl	%ecx, -116(%rbp)
	movl	-116(%rbp), %ecx
	movl	%ecx, -112(%rbp)
	movl	-112(%rbp), %ecx
	movl	%ecx, -108(%rbp)
	movl	-108(%rbp), %ecx
	movl	%ecx, -104(%rbp)
	movl	-104(%rbp), %ecx
	movl	%ecx, -100(%rbp)
	movl	-100(%rbp), %ecx
	movl	-144(%rbp), %edx
	movq	%rax, -16(%rbp)
	movl	%ecx, -20(%rbp)
	movl	%edx, -24(%rbp)
	movq	-16(%rbp), %rax
	movl	-24(%rbp), %ecx
	movl	%ecx, -4(%rbp)
	cmpl	$0, -4(%rbp)
	movq	%rax, -160(%rbp)        # 8-byte Spill
	jne	.LBB15_2
# %bb.1:
	xorl	%eax, %eax
	movl	%eax, -164(%rbp)        # 4-byte Spill
	jmp	.LBB15_12
.LBB15_2:
	cmpl	$1, -4(%rbp)
	jne	.LBB15_4
# %bb.3:
	movl	$1, %eax
	movl	%eax, -168(%rbp)        # 4-byte Spill
	jmp	.LBB15_11
.LBB15_4:
	cmpl	$2, -4(%rbp)
	jne	.LBB15_6
# %bb.5:
	movl	$2, %eax
	movl	%eax, -172(%rbp)        # 4-byte Spill
	jmp	.LBB15_10
.LBB15_6:
	cmpl	$4, -4(%rbp)
	jne	.LBB15_8
# %bb.7:
	movl	$3, %eax
	movl	%eax, -176(%rbp)        # 4-byte Spill
	jmp	.LBB15_9
.LBB15_8:
	movl	-4(%rbp), %eax
	cmpl	$6, %eax
	movl	$4, %eax
	movl	$5, %ecx
	cmovel	%eax, %ecx
	movl	%ecx, -176(%rbp)        # 4-byte Spill
.LBB15_9:
	movl	-176(%rbp), %eax        # 4-byte Reload
	movl	%eax, -172(%rbp)        # 4-byte Spill
.LBB15_10:
	movl	-172(%rbp), %eax        # 4-byte Reload
	movl	%eax, -168(%rbp)        # 4-byte Spill
.LBB15_11:
	movl	-168(%rbp), %eax        # 4-byte Reload
	movl	%eax, -164(%rbp)        # 4-byte Spill
.LBB15_12:
	movl	-164(%rbp), %eax        # 4-byte Reload
	movl	-20(%rbp), %ecx
	movl	%ecx, -28(%rbp)
	addl	$-1, %eax
	movl	%eax, %edx
	subl	$4, %eax
	movq	%rdx, -184(%rbp)        # 8-byte Spill
	ja	.LBB15_13
# %bb.19:
	movq	-184(%rbp), %rax        # 8-byte Reload
	movq	.LJTI15_0(,%rax,8), %rcx
	jmpq	*%rcx
.LBB15_13:
	movl	-28(%rbp), %eax
	negl	%eax
	movq	-160(%rbp), %rcx        # 8-byte Reload
	lock		xaddl	%eax, (%rcx)
	movl	%eax, -32(%rbp)
	jmp	.LBB15_18
.LBB15_14:
	movl	-28(%rbp), %eax
	negl	%eax
	movq	-160(%rbp), %rcx        # 8-byte Reload
	lock		xaddl	%eax, (%rcx)
	movl	%eax, -32(%rbp)
	jmp	.LBB15_18
.LBB15_15:
	movl	-28(%rbp), %eax
	negl	%eax
	movq	-160(%rbp), %rcx        # 8-byte Reload
	lock		xaddl	%eax, (%rcx)
	movl	%eax, -32(%rbp)
	jmp	.LBB15_18
.LBB15_16:
	movl	-28(%rbp), %eax
	negl	%eax
	movq	-160(%rbp), %rcx        # 8-byte Reload
	lock		xaddl	%eax, (%rcx)
	movl	%eax, -32(%rbp)
	jmp	.LBB15_18
.LBB15_17:
	movl	-28(%rbp), %eax
	negl	%eax
	movq	-160(%rbp), %rcx        # 8-byte Reload
	lock		xaddl	%eax, (%rcx)
	movl	%eax, -32(%rbp)
.LBB15_18:
	movl	-32(%rbp), %eax
	movl	%eax, -96(%rbp)
	movl	-96(%rbp), %eax
	movl	%eax, -92(%rbp)
	movl	-92(%rbp), %eax
	movl	%eax, -84(%rbp)
	movl	-84(%rbp), %eax
	movl	%eax, -88(%rbp)
	leaq	-88(%rbp), %rcx
	movq	%rcx, -80(%rbp)
	movq	-80(%rbp), %rcx
	movq	%rcx, -64(%rbp)
	leaq	-68(%rbp), %rcx
	movq	%rcx, -56(%rbp)
	movq	-56(%rbp), %rdx
	movq	-64(%rbp), %rsi
	movq	%rsi, -40(%rbp)
	movq	-40(%rbp), %rsi
	movl	(%rsi), %eax
	movl	%eax, (%rdx)
	movq	%rcx, -48(%rbp)
	movl	-68(%rbp), %eax
	movl	%eax, -148(%rbp)
	movl	-148(%rbp), %eax
	subl	$1, %eax
	addq	$56, %rsp
	popq	%rbp
	.cfi_def_cfa %rsp, 8
	retq
.Lfunc_end15:
	.size	_Z13subProcessNumv, .Lfunc_end15-_Z13subProcessNumv
	.cfi_endproc
	.section	.rodata,"a",@progbits
	.p2align	3
.LJTI15_0:
	.quad	.LBB15_14
	.quad	.LBB15_14
	.quad	.LBB15_15
	.quad	.LBB15_16
	.quad	.LBB15_17
                                        # -- End function
	.text
	.globl	_Z8open_memi            # -- Begin function _Z8open_memi
	.p2align	4, 0x90
	.type	_Z8open_memi,@function
_Z8open_memi:                           # @_Z8open_memi
	.cfi_startproc
# %bb.0:
	pushq	%rbp
	.cfi_def_cfa_offset 16
	.cfi_offset %rbp, -16
	movq	%rsp, %rbp
	.cfi_def_cfa_register %rbp
	subq	$32, %rsp
	movl	%edi, -4(%rbp)
	movabsq	$.L.str, %rdi
	movl	$194, %esi
	movl	$511, %edx              # imm = 0x1FF
	callq	shm_open
	movl	%eax, -8(%rbp)
	cmpl	$0, -8(%rbp)
	jge	.LBB16_4
# %bb.1:
	movabsq	$.L.str, %rdi
	movl	$2, %esi
	movl	$511, %edx              # imm = 0x1FF
	callq	shm_open
	movl	%eax, -8(%rbp)
	callq	_Z13addProcessNumv
	movl	%eax, -12(%rbp)
	cmpl	$0, -8(%rbp)
	jge	.LBB16_3
# %bb.2:
	movabsq	$.L.str.5, %rdi
	movb	$0, %al
	callq	printf
	movl	$1, %edi
	movl	%eax, -20(%rbp)         # 4-byte Spill
	callq	exit
.LBB16_3:
	jmp	.LBB16_5
.LBB16_4:
	movl	-8(%rbp), %edi
	movslq	-4(%rbp), %rsi
	callq	ftruncate
	movl	%eax, -24(%rbp)         # 4-byte Spill
	callq	_Z16setProcessNumOnev
	movl	%eax, -16(%rbp)
.LBB16_5:
	movl	-8(%rbp), %eax
	addq	$32, %rsp
	popq	%rbp
	.cfi_def_cfa %rsp, 8
	retq
.Lfunc_end16:
	.size	_Z8open_memi, .Lfunc_end16-_Z8open_memi
	.cfi_endproc
                                        # -- End function
	.section	.text.startup,"ax",@progbits
	.p2align	4, 0x90         # -- Begin function __cxx_global_var_init.6
	.type	__cxx_global_var_init.6,@function
__cxx_global_var_init.6:                # @__cxx_global_var_init.6
	.cfi_startproc
# %bb.0:
	pushq	%rbp
	.cfi_def_cfa_offset 16
	.cfi_offset %rbp, -16
	movq	%rsp, %rbp
	.cfi_def_cfa_register %rbp
	movabsq	$g, %rdi
	callq	_ZN10shm_helperC2Ev
	movabsq	$_ZN10shm_helperD2Ev, %rax
	movq	%rax, %rdi
	movabsq	$g, %rsi
	movabsq	$__dso_handle, %rdx
	callq	__cxa_atexit
	popq	%rbp
	.cfi_def_cfa %rsp, 8
	retq
.Lfunc_end17:
	.size	__cxx_global_var_init.6, .Lfunc_end17-__cxx_global_var_init.6
	.cfi_endproc
                                        # -- End function
	.section	.text._ZN10shm_helperC2Ev,"axG",@progbits,_ZN10shm_helperC2Ev,comdat
	.weak	_ZN10shm_helperC2Ev     # -- Begin function _ZN10shm_helperC2Ev
	.p2align	4, 0x90
	.type	_ZN10shm_helperC2Ev,@function
_ZN10shm_helperC2Ev:                    # @_ZN10shm_helperC2Ev
	.cfi_startproc
# %bb.0:
	pushq	%rbp
	.cfi_def_cfa_offset 16
	.cfi_offset %rbp, -16
	movq	%rsp, %rbp
	.cfi_def_cfa_register %rbp
	subq	$16, %rsp
	movq	%rdi, -8(%rbp)
	cmpl	$-1, Fd
	jne	.LBB18_2
# %bb.1:
	movl	$1073741824, %edi       # imm = 0x40000000
	callq	_Z8open_memi
	movl	%eax, Fd
.LBB18_2:
	addq	$16, %rsp
	popq	%rbp
	.cfi_def_cfa %rsp, 8
	retq
.Lfunc_end18:
	.size	_ZN10shm_helperC2Ev, .Lfunc_end18-_ZN10shm_helperC2Ev
	.cfi_endproc
                                        # -- End function
	.section	.text._ZN10shm_helperD2Ev,"axG",@progbits,_ZN10shm_helperD2Ev,comdat
	.weak	_ZN10shm_helperD2Ev     # -- Begin function _ZN10shm_helperD2Ev
	.p2align	4, 0x90
	.type	_ZN10shm_helperD2Ev,@function
_ZN10shm_helperD2Ev:                    # @_ZN10shm_helperD2Ev
.Lfunc_begin3:
	.cfi_startproc
	.cfi_personality 3, __gxx_personality_v0
	.cfi_lsda 3, .Lexception3
# %bb.0:
	pushq	%rbp
	.cfi_def_cfa_offset 16
	.cfi_offset %rbp, -16
	movq	%rsp, %rbp
	.cfi_def_cfa_register %rbp
	subq	$32, %rsp
	movq	%rdi, -8(%rbp)
.Ltmp9:
	movl	$.L.str.92, %edi
	xorl	%eax, %eax
                                        # kill: def $al killed $al killed $eax
	callq	printf
.Ltmp10:
	jmp	.LBB19_1
.LBB19_1:
.Ltmp11:
	callq	_Z13subProcessNumv
.Ltmp12:
	movl	%eax, -16(%rbp)         # 4-byte Spill
	jmp	.LBB19_2
.LBB19_2:
	movl	-16(%rbp), %eax         # 4-byte Reload
	movl	%eax, -12(%rbp)
	movq	mtx(%rip), %rdi
.Ltmp13:
	callq	_ZN5boost12interprocess18interprocess_mutex4lockEv
.Ltmp14:
	jmp	.LBB19_3
.LBB19_3:
	cmpl	$0, -12(%rbp)
	jne	.LBB19_7
# %bb.4:
.Ltmp15:
	movl	$.L.str, %edi
	callq	shm_unlink
.Ltmp16:
	jmp	.LBB19_5
.LBB19_5:
.Ltmp17:
	movl	$.L.str.13, %edi
	callq	_ZN5boost12interprocess20shared_memory_object6removeEPKc
.Ltmp18:
	jmp	.LBB19_6
.LBB19_6:
	jmp	.LBB19_7
.LBB19_7:
	movq	mtx(%rip), %rdi
.Ltmp19:
	callq	_ZN5boost12interprocess18interprocess_mutex6unlockEv
.Ltmp20:
	jmp	.LBB19_8
.LBB19_8:
	addq	$32, %rsp
	popq	%rbp
	.cfi_def_cfa %rsp, 8
	retq
.LBB19_9:
	.cfi_def_cfa %rbp, 16
.Ltmp21:
                                        # kill: def $edx killed $edx killed $rdx
	movq	%rax, %rdi
	movl	%edx, -20(%rbp)         # 4-byte Spill
	callq	__clang_call_terminate
.Lfunc_end19:
	.size	_ZN10shm_helperD2Ev, .Lfunc_end19-_ZN10shm_helperD2Ev
	.cfi_endproc
	.section	.gcc_except_table,"a",@progbits
	.p2align	2
GCC_except_table19:
.Lexception3:
	.byte	255                     # @LPStart Encoding = omit
	.byte	3                       # @TType Encoding = udata4
	.uleb128 .Lttbase1-.Lttbaseref1
.Lttbaseref1:
	.byte	1                       # Call site Encoding = uleb128
	.uleb128 .Lcst_end3-.Lcst_begin3
.Lcst_begin3:
	.uleb128 .Ltmp9-.Lfunc_begin3   # >> Call Site 1 <<
	.uleb128 .Ltmp20-.Ltmp9         #   Call between .Ltmp9 and .Ltmp20
	.uleb128 .Ltmp21-.Lfunc_begin3  #     jumps to .Ltmp21
	.byte	1                       #   On action: 1
.Lcst_end3:
	.byte	1                       # >> Action Record 1 <<
                                        #   Catch TypeInfo 1
	.byte	0                       #   No further actions
	.p2align	2
                                        # >> Catch TypeInfos <<
	.long	0                       # TypeInfo 1
.Lttbase1:
	.p2align	2
                                        # -- End function
	.text
	.globl	_Z5getFdv               # -- Begin function _Z5getFdv
	.p2align	4, 0x90
	.type	_Z5getFdv,@function
_Z5getFdv:                              # @_Z5getFdv
	.cfi_startproc
# %bb.0:
	pushq	%rbp
	.cfi_def_cfa_offset 16
	.cfi_offset %rbp, -16
	movq	%rsp, %rbp
	.cfi_def_cfa_register %rbp
	movl	Fd, %eax
	popq	%rbp
	.cfi_def_cfa %rsp, 8
	retq
.Lfunc_end20:
	.size	_Z5getFdv, .Lfunc_end20-_Z5getFdv
	.cfi_endproc
                                        # -- End function
	.globl	_Z14getAlignedAddri     # -- Begin function _Z14getAlignedAddri
	.p2align	4, 0x90
	.type	_Z14getAlignedAddri,@function
_Z14getAlignedAddri:                    # @_Z14getAlignedAddri
	.cfi_startproc
# %bb.0:
	pushq	%rbp
	.cfi_def_cfa_offset 16
	.cfi_offset %rbp, -16
	movq	%rsp, %rbp
	.cfi_def_cfa_register %rbp
	subq	$16, %rsp
	movl	%edi, -4(%rbp)
	movl	$30, %edi
	callq	sysconf
                                        # kill: def $eax killed $eax killed $rax
	movl	%eax, -8(%rbp)
	movl	-4(%rbp), %eax
	cltd
	idivl	-8(%rbp)
	cmpl	$0, %edx
	je	.LBB21_2
# %bb.1:
	movl	-4(%rbp), %eax
	cltd
	idivl	-8(%rbp)
	movl	%edx, -12(%rbp)
	movl	-8(%rbp), %ecx
	subl	-12(%rbp), %ecx
	addl	-4(%rbp), %ecx
	movl	%ecx, -4(%rbp)
.LBB21_2:
	movl	-4(%rbp), %eax
	addq	$16, %rsp
	popq	%rbp
	.cfi_def_cfa %rsp, 8
	retq
.Lfunc_end21:
	.size	_Z14getAlignedAddri, .Lfunc_end21-_Z14getAlignedAddri
	.cfi_endproc
                                        # -- End function
	.globl	_Z8getCounti            # -- Begin function _Z8getCounti
	.p2align	4, 0x90
	.type	_Z8getCounti,@function
_Z8getCounti:                           # @_Z8getCounti
	.cfi_startproc
# %bb.0:
	pushq	%rbp
	.cfi_def_cfa_offset 16
	.cfi_offset %rbp, -16
	movq	%rsp, %rbp
	.cfi_def_cfa_register %rbp
	subq	$48, %rsp
	movl	%edi, -4(%rbp)
	movl	$-1, -8(%rbp)
	movabsq	$mem_manager, %rdi
	callq	_ZNK5boost12interprocess10offset_ptrINS_9container6vectorI8mem_infoNS0_9allocatorIS4_NS0_15segment_managerIcNS0_15rbtree_best_fitINS0_12mutex_familyENS1_IvlmLm0EEELm0EEENS0_10iset_indexEEEEEvEElmLm0EEptEv
	leaq	-16(%rbp), %rdi
	movq	%rax, %rsi
	callq	_ZN5boost9container6vectorI8mem_infoNS_12interprocess9allocatorIS2_NS3_15segment_managerIcNS3_15rbtree_best_fitINS3_12mutex_familyENS3_10offset_ptrIvlmLm0EEELm0EEENS3_10iset_indexEEEEEvE5beginEv
.LBB22_1:                               # =>This Inner Loop Header: Depth=1
	movabsq	$mem_manager, %rdi
	callq	_ZNK5boost12interprocess10offset_ptrINS_9container6vectorI8mem_infoNS0_9allocatorIS4_NS0_15segment_managerIcNS0_15rbtree_best_fitINS0_12mutex_familyENS1_IvlmLm0EEELm0EEENS0_10iset_indexEEEEEvEElmLm0EEptEv
	leaq	-24(%rbp), %rdi
	movq	%rax, %rsi
	callq	_ZN5boost9container6vectorI8mem_infoNS_12interprocess9allocatorIS2_NS3_15segment_managerIcNS3_15rbtree_best_fitINS3_12mutex_familyENS3_10offset_ptrIvlmLm0EEELm0EEENS3_10iset_indexEEEEEvE3endEv
	leaq	-16(%rbp), %rdi
	leaq	-24(%rbp), %rsi
	callq	_ZN5boost9containerneERKNS0_12vec_iteratorINS_12interprocess10offset_ptrI8mem_infolmLm0EEELb0EEES8_
	testb	$1, %al
	jne	.LBB22_2
	jmp	.LBB22_6
.LBB22_2:                               #   in Loop: Header=BB22_1 Depth=1
	leaq	-32(%rbp), %rdi
	leaq	-16(%rbp), %rsi
	callq	_ZNK5boost9container12vec_iteratorINS_12interprocess10offset_ptrI8mem_infolmLm0EEELb0EEptEv
	leaq	-32(%rbp), %rdi
	callq	_ZNK5boost12interprocess10offset_ptrI8mem_infolmLm0EEptEv
	movl	4(%rax), %ecx
	cmpl	-4(%rbp), %ecx
	jne	.LBB22_4
# %bb.3:
	leaq	-40(%rbp), %rdi
	leaq	-16(%rbp), %rsi
	callq	_ZNK5boost9container12vec_iteratorINS_12interprocess10offset_ptrI8mem_infolmLm0EEELb0EEptEv
	leaq	-40(%rbp), %rdi
	callq	_ZNK5boost12interprocess10offset_ptrI8mem_infolmLm0EEptEv
	movl	8(%rax), %ecx
	movl	%ecx, -8(%rbp)
	jmp	.LBB22_6
.LBB22_4:                               #   in Loop: Header=BB22_1 Depth=1
	jmp	.LBB22_5
.LBB22_5:                               #   in Loop: Header=BB22_1 Depth=1
	xorl	%edx, %edx
	leaq	-48(%rbp), %rdi
	leaq	-16(%rbp), %rsi
	callq	_ZN5boost9container12vec_iteratorINS_12interprocess10offset_ptrI8mem_infolmLm0EEELb0EEppEi
	jmp	.LBB22_1
.LBB22_6:
	movl	-8(%rbp), %eax
	addq	$48, %rsp
	popq	%rbp
	.cfi_def_cfa %rsp, 8
	retq
.Lfunc_end22:
	.size	_Z8getCounti, .Lfunc_end22-_Z8getCounti
	.cfi_endproc
                                        # -- End function
	.section	.text._ZNK5boost12interprocess10offset_ptrINS_9container6vectorI8mem_infoNS0_9allocatorIS4_NS0_15segment_managerIcNS0_15rbtree_best_fitINS0_12mutex_familyENS1_IvlmLm0EEELm0EEENS0_10iset_indexEEEEEvEElmLm0EEptEv,"axG",@progbits,_ZNK5boost12interprocess10offset_ptrINS_9container6vectorI8mem_infoNS0_9allocatorIS4_NS0_15segment_managerIcNS0_15rbtree_best_fitINS0_12mutex_familyENS1_IvlmLm0EEELm0EEENS0_10iset_indexEEEEEvEElmLm0EEptEv,comdat
	.weak	_ZNK5boost12interprocess10offset_ptrINS_9container6vectorI8mem_infoNS0_9allocatorIS4_NS0_15segment_managerIcNS0_15rbtree_best_fitINS0_12mutex_familyENS1_IvlmLm0EEELm0EEENS0_10iset_indexEEEEEvEElmLm0EEptEv # -- Begin function _ZNK5boost12interprocess10offset_ptrINS_9container6vectorI8mem_infoNS0_9allocatorIS4_NS0_15segment_managerIcNS0_15rbtree_best_fitINS0_12mutex_familyENS1_IvlmLm0EEELm0EEENS0_10iset_indexEEEEEvEElmLm0EEptEv
	.p2align	4, 0x90
	.type	_ZNK5boost12interprocess10offset_ptrINS_9container6vectorI8mem_infoNS0_9allocatorIS4_NS0_15segment_managerIcNS0_15rbtree_best_fitINS0_12mutex_familyENS1_IvlmLm0EEELm0EEENS0_10iset_indexEEEEEvEElmLm0EEptEv,@function
_ZNK5boost12interprocess10offset_ptrINS_9container6vectorI8mem_infoNS0_9allocatorIS4_NS0_15segment_managerIcNS0_15rbtree_best_fitINS0_12mutex_familyENS1_IvlmLm0EEELm0EEENS0_10iset_indexEEEEEvEElmLm0EEptEv: # @_ZNK5boost12interprocess10offset_ptrINS_9container6vectorI8mem_infoNS0_9allocatorIS4_NS0_15segment_managerIcNS0_15rbtree_best_fitINS0_12mutex_familyENS1_IvlmLm0EEELm0EEENS0_10iset_indexEEEEEvEElmLm0EEptEv
	.cfi_startproc
# %bb.0:
	pushq	%rbp
	.cfi_def_cfa_offset 16
	.cfi_offset %rbp, -16
	movq	%rsp, %rbp
	.cfi_def_cfa_register %rbp
	subq	$16, %rsp
	movq	%rdi, -8(%rbp)
	movq	-8(%rbp), %rdi
	callq	_ZNK5boost12interprocess10offset_ptrINS_9container6vectorI8mem_infoNS0_9allocatorIS4_NS0_15segment_managerIcNS0_15rbtree_best_fitINS0_12mutex_familyENS1_IvlmLm0EEELm0EEENS0_10iset_indexEEEEEvEElmLm0EE3getEv
	addq	$16, %rsp
	popq	%rbp
	.cfi_def_cfa %rsp, 8
	retq
.Lfunc_end23:
	.size	_ZNK5boost12interprocess10offset_ptrINS_9container6vectorI8mem_infoNS0_9allocatorIS4_NS0_15segment_managerIcNS0_15rbtree_best_fitINS0_12mutex_familyENS1_IvlmLm0EEELm0EEENS0_10iset_indexEEEEEvEElmLm0EEptEv, .Lfunc_end23-_ZNK5boost12interprocess10offset_ptrINS_9container6vectorI8mem_infoNS0_9allocatorIS4_NS0_15segment_managerIcNS0_15rbtree_best_fitINS0_12mutex_familyENS1_IvlmLm0EEELm0EEENS0_10iset_indexEEEEEvEElmLm0EEptEv
	.cfi_endproc
                                        # -- End function
	.section	.text._ZN5boost9container6vectorI8mem_infoNS_12interprocess9allocatorIS2_NS3_15segment_managerIcNS3_15rbtree_best_fitINS3_12mutex_familyENS3_10offset_ptrIvlmLm0EEELm0EEENS3_10iset_indexEEEEEvE5beginEv,"axG",@progbits,_ZN5boost9container6vectorI8mem_infoNS_12interprocess9allocatorIS2_NS3_15segment_managerIcNS3_15rbtree_best_fitINS3_12mutex_familyENS3_10offset_ptrIvlmLm0EEELm0EEENS3_10iset_indexEEEEEvE5beginEv,comdat
	.weak	_ZN5boost9container6vectorI8mem_infoNS_12interprocess9allocatorIS2_NS3_15segment_managerIcNS3_15rbtree_best_fitINS3_12mutex_familyENS3_10offset_ptrIvlmLm0EEELm0EEENS3_10iset_indexEEEEEvE5beginEv # -- Begin function _ZN5boost9container6vectorI8mem_infoNS_12interprocess9allocatorIS2_NS3_15segment_managerIcNS3_15rbtree_best_fitINS3_12mutex_familyENS3_10offset_ptrIvlmLm0EEELm0EEENS3_10iset_indexEEEEEvE5beginEv
	.p2align	4, 0x90
	.type	_ZN5boost9container6vectorI8mem_infoNS_12interprocess9allocatorIS2_NS3_15segment_managerIcNS3_15rbtree_best_fitINS3_12mutex_familyENS3_10offset_ptrIvlmLm0EEELm0EEENS3_10iset_indexEEEEEvE5beginEv,@function
_ZN5boost9container6vectorI8mem_infoNS_12interprocess9allocatorIS2_NS3_15segment_managerIcNS3_15rbtree_best_fitINS3_12mutex_familyENS3_10offset_ptrIvlmLm0EEELm0EEENS3_10iset_indexEEEEEvE5beginEv: # @_ZN5boost9container6vectorI8mem_infoNS_12interprocess9allocatorIS2_NS3_15segment_managerIcNS3_15rbtree_best_fitINS3_12mutex_familyENS3_10offset_ptrIvlmLm0EEELm0EEENS3_10iset_indexEEEEEvE5beginEv
	.cfi_startproc
# %bb.0:
	pushq	%rbp
	.cfi_def_cfa_offset 16
	.cfi_offset %rbp, -16
	movq	%rsp, %rbp
	.cfi_def_cfa_register %rbp
	subq	$48, %rsp
	movq	%rdi, %rax
	movq	%rdi, %rcx
	movq	%rcx, -8(%rbp)
	movq	%rsi, -16(%rbp)
	movq	-16(%rbp), %rcx
	movq	%rdi, -32(%rbp)         # 8-byte Spill
	movq	%rcx, %rdi
	movq	%rax, -40(%rbp)         # 8-byte Spill
	callq	_ZNK5boost9container19vector_alloc_holderINS_12interprocess9allocatorI8mem_infoNS2_15segment_managerIcNS2_15rbtree_best_fitINS2_12mutex_familyENS2_10offset_ptrIvlmLm0EEELm0EEENS2_10iset_indexEEEEEmNS_11move_detail17integral_constantIjLj2EEEE5startEv
	leaq	-24(%rbp), %rdi
	movq	%rax, %rsi
	callq	_ZN5boost12interprocess10offset_ptrI8mem_infolmLm0EEC2ERKS3_
	movq	-32(%rbp), %rdi         # 8-byte Reload
	leaq	-24(%rbp), %rsi
	callq	_ZN5boost9container12vec_iteratorINS_12interprocess10offset_ptrI8mem_infolmLm0EEELb0EEC2ES5_
	movq	-40(%rbp), %rax         # 8-byte Reload
	addq	$48, %rsp
	popq	%rbp
	.cfi_def_cfa %rsp, 8
	retq
.Lfunc_end24:
	.size	_ZN5boost9container6vectorI8mem_infoNS_12interprocess9allocatorIS2_NS3_15segment_managerIcNS3_15rbtree_best_fitINS3_12mutex_familyENS3_10offset_ptrIvlmLm0EEELm0EEENS3_10iset_indexEEEEEvE5beginEv, .Lfunc_end24-_ZN5boost9container6vectorI8mem_infoNS_12interprocess9allocatorIS2_NS3_15segment_managerIcNS3_15rbtree_best_fitINS3_12mutex_familyENS3_10offset_ptrIvlmLm0EEELm0EEENS3_10iset_indexEEEEEvE5beginEv
	.cfi_endproc
                                        # -- End function
	.section	.text._ZN5boost9containerneERKNS0_12vec_iteratorINS_12interprocess10offset_ptrI8mem_infolmLm0EEELb0EEES8_,"axG",@progbits,_ZN5boost9containerneERKNS0_12vec_iteratorINS_12interprocess10offset_ptrI8mem_infolmLm0EEELb0EEES8_,comdat
	.weak	_ZN5boost9containerneERKNS0_12vec_iteratorINS_12interprocess10offset_ptrI8mem_infolmLm0EEELb0EEES8_ # -- Begin function _ZN5boost9containerneERKNS0_12vec_iteratorINS_12interprocess10offset_ptrI8mem_infolmLm0EEELb0EEES8_
	.p2align	4, 0x90
	.type	_ZN5boost9containerneERKNS0_12vec_iteratorINS_12interprocess10offset_ptrI8mem_infolmLm0EEELb0EEES8_,@function
_ZN5boost9containerneERKNS0_12vec_iteratorINS_12interprocess10offset_ptrI8mem_infolmLm0EEELb0EEES8_: # @_ZN5boost9containerneERKNS0_12vec_iteratorINS_12interprocess10offset_ptrI8mem_infolmLm0EEELb0EEES8_
	.cfi_startproc
# %bb.0:
	pushq	%rbp
	.cfi_def_cfa_offset 16
	.cfi_offset %rbp, -16
	movq	%rsp, %rbp
	.cfi_def_cfa_register %rbp
	subq	$16, %rsp
	movq	%rdi, -8(%rbp)
	movq	%rsi, -16(%rbp)
	movq	-8(%rbp), %rdi
	movq	-16(%rbp), %rsi
	callq	_ZN5boost12interprocessneERKNS0_10offset_ptrI8mem_infolmLm0EEES5_
	andb	$1, %al
	movzbl	%al, %eax
	addq	$16, %rsp
	popq	%rbp
	.cfi_def_cfa %rsp, 8
	retq
.Lfunc_end25:
	.size	_ZN5boost9containerneERKNS0_12vec_iteratorINS_12interprocess10offset_ptrI8mem_infolmLm0EEELb0EEES8_, .Lfunc_end25-_ZN5boost9containerneERKNS0_12vec_iteratorINS_12interprocess10offset_ptrI8mem_infolmLm0EEELb0EEES8_
	.cfi_endproc
                                        # -- End function
	.section	.text._ZN5boost9container6vectorI8mem_infoNS_12interprocess9allocatorIS2_NS3_15segment_managerIcNS3_15rbtree_best_fitINS3_12mutex_familyENS3_10offset_ptrIvlmLm0EEELm0EEENS3_10iset_indexEEEEEvE3endEv,"axG",@progbits,_ZN5boost9container6vectorI8mem_infoNS_12interprocess9allocatorIS2_NS3_15segment_managerIcNS3_15rbtree_best_fitINS3_12mutex_familyENS3_10offset_ptrIvlmLm0EEELm0EEENS3_10iset_indexEEEEEvE3endEv,comdat
	.weak	_ZN5boost9container6vectorI8mem_infoNS_12interprocess9allocatorIS2_NS3_15segment_managerIcNS3_15rbtree_best_fitINS3_12mutex_familyENS3_10offset_ptrIvlmLm0EEELm0EEENS3_10iset_indexEEEEEvE3endEv # -- Begin function _ZN5boost9container6vectorI8mem_infoNS_12interprocess9allocatorIS2_NS3_15segment_managerIcNS3_15rbtree_best_fitINS3_12mutex_familyENS3_10offset_ptrIvlmLm0EEELm0EEENS3_10iset_indexEEEEEvE3endEv
	.p2align	4, 0x90
	.type	_ZN5boost9container6vectorI8mem_infoNS_12interprocess9allocatorIS2_NS3_15segment_managerIcNS3_15rbtree_best_fitINS3_12mutex_familyENS3_10offset_ptrIvlmLm0EEELm0EEENS3_10iset_indexEEEEEvE3endEv,@function
_ZN5boost9container6vectorI8mem_infoNS_12interprocess9allocatorIS2_NS3_15segment_managerIcNS3_15rbtree_best_fitINS3_12mutex_familyENS3_10offset_ptrIvlmLm0EEELm0EEENS3_10iset_indexEEEEEvE3endEv: # @_ZN5boost9container6vectorI8mem_infoNS_12interprocess9allocatorIS2_NS3_15segment_managerIcNS3_15rbtree_best_fitINS3_12mutex_familyENS3_10offset_ptrIvlmLm0EEELm0EEENS3_10iset_indexEEEEEvE3endEv
	.cfi_startproc
# %bb.0:
	pushq	%rbp
	.cfi_def_cfa_offset 16
	.cfi_offset %rbp, -16
	movq	%rsp, %rbp
	.cfi_def_cfa_register %rbp
	subq	$80, %rsp
	movq	%rdi, %rax
	movq	%rdi, %rcx
	movq	%rcx, -8(%rbp)
	movq	%rsi, -16(%rbp)
	movq	-16(%rbp), %rcx
	movq	%rdi, -56(%rbp)         # 8-byte Spill
	movq	%rcx, %rdi
	movq	%rax, -64(%rbp)         # 8-byte Spill
	movq	%rcx, -72(%rbp)         # 8-byte Spill
	callq	_ZNK5boost9container19vector_alloc_holderINS_12interprocess9allocatorI8mem_infoNS2_15segment_managerIcNS2_15rbtree_best_fitINS2_12mutex_familyENS2_10offset_ptrIvlmLm0EEELm0EEENS2_10iset_indexEEEEEmNS_11move_detail17integral_constantIjLj2EEEE5startEv
	leaq	-24(%rbp), %rdi
	movq	%rax, %rsi
	callq	_ZN5boost12interprocess10offset_ptrI8mem_infolmLm0EEC2ERKS3_
	movq	-72(%rbp), %rax         # 8-byte Reload
	movq	16(%rax), %rcx
	movq	%rcx, -32(%rbp)
	cmpq	$0, -32(%rbp)
	je	.LBB26_2
# %bb.1:
	leaq	-48(%rbp), %rdi
	leaq	-24(%rbp), %rsi
	callq	_ZN5boost12interprocess10offset_ptrI8mem_infolmLm0EEC2ERKS3_
	movq	-32(%rbp), %rdx
	leaq	-40(%rbp), %rdi
	leaq	-48(%rbp), %rsi
	callq	_ZN5boost12interprocessplENS0_10offset_ptrI8mem_infolmLm0EEEl
	jmp	.LBB26_3
.LBB26_2:
	leaq	-40(%rbp), %rdi
	leaq	-24(%rbp), %rsi
	callq	_ZN5boost12interprocess10offset_ptrI8mem_infolmLm0EEC2ERKS3_
.LBB26_3:
	movq	-56(%rbp), %rdi         # 8-byte Reload
	leaq	-40(%rbp), %rsi
	callq	_ZN5boost9container12vec_iteratorINS_12interprocess10offset_ptrI8mem_infolmLm0EEELb0EEC2ES5_
	movq	-64(%rbp), %rax         # 8-byte Reload
	addq	$80, %rsp
	popq	%rbp
	.cfi_def_cfa %rsp, 8
	retq
.Lfunc_end26:
	.size	_ZN5boost9container6vectorI8mem_infoNS_12interprocess9allocatorIS2_NS3_15segment_managerIcNS3_15rbtree_best_fitINS3_12mutex_familyENS3_10offset_ptrIvlmLm0EEELm0EEENS3_10iset_indexEEEEEvE3endEv, .Lfunc_end26-_ZN5boost9container6vectorI8mem_infoNS_12interprocess9allocatorIS2_NS3_15segment_managerIcNS3_15rbtree_best_fitINS3_12mutex_familyENS3_10offset_ptrIvlmLm0EEELm0EEENS3_10iset_indexEEEEEvE3endEv
	.cfi_endproc
                                        # -- End function
	.section	.text._ZNK5boost9container12vec_iteratorINS_12interprocess10offset_ptrI8mem_infolmLm0EEELb0EEptEv,"axG",@progbits,_ZNK5boost9container12vec_iteratorINS_12interprocess10offset_ptrI8mem_infolmLm0EEELb0EEptEv,comdat
	.weak	_ZNK5boost9container12vec_iteratorINS_12interprocess10offset_ptrI8mem_infolmLm0EEELb0EEptEv # -- Begin function _ZNK5boost9container12vec_iteratorINS_12interprocess10offset_ptrI8mem_infolmLm0EEELb0EEptEv
	.p2align	4, 0x90
	.type	_ZNK5boost9container12vec_iteratorINS_12interprocess10offset_ptrI8mem_infolmLm0EEELb0EEptEv,@function
_ZNK5boost9container12vec_iteratorINS_12interprocess10offset_ptrI8mem_infolmLm0EEELb0EEptEv: # @_ZNK5boost9container12vec_iteratorINS_12interprocess10offset_ptrI8mem_infolmLm0EEELb0EEptEv
	.cfi_startproc
# %bb.0:
	pushq	%rbp
	.cfi_def_cfa_offset 16
	.cfi_offset %rbp, -16
	movq	%rsp, %rbp
	.cfi_def_cfa_register %rbp
	subq	$32, %rsp
	movq	%rdi, %rax
	movq	%rdi, %rcx
	movq	%rcx, -8(%rbp)
	movq	%rsi, -16(%rbp)
	movq	-16(%rbp), %rsi
	movq	%rax, -24(%rbp)         # 8-byte Spill
	callq	_ZN5boost12interprocess10offset_ptrI8mem_infolmLm0EEC2ERKS3_
	movq	-24(%rbp), %rax         # 8-byte Reload
	addq	$32, %rsp
	popq	%rbp
	.cfi_def_cfa %rsp, 8
	retq
.Lfunc_end27:
	.size	_ZNK5boost9container12vec_iteratorINS_12interprocess10offset_ptrI8mem_infolmLm0EEELb0EEptEv, .Lfunc_end27-_ZNK5boost9container12vec_iteratorINS_12interprocess10offset_ptrI8mem_infolmLm0EEELb0EEptEv
	.cfi_endproc
                                        # -- End function
	.section	.text._ZNK5boost12interprocess10offset_ptrI8mem_infolmLm0EEptEv,"axG",@progbits,_ZNK5boost12interprocess10offset_ptrI8mem_infolmLm0EEptEv,comdat
	.weak	_ZNK5boost12interprocess10offset_ptrI8mem_infolmLm0EEptEv # -- Begin function _ZNK5boost12interprocess10offset_ptrI8mem_infolmLm0EEptEv
	.p2align	4, 0x90
	.type	_ZNK5boost12interprocess10offset_ptrI8mem_infolmLm0EEptEv,@function
_ZNK5boost12interprocess10offset_ptrI8mem_infolmLm0EEptEv: # @_ZNK5boost12interprocess10offset_ptrI8mem_infolmLm0EEptEv
	.cfi_startproc
# %bb.0:
	pushq	%rbp
	.cfi_def_cfa_offset 16
	.cfi_offset %rbp, -16
	movq	%rsp, %rbp
	.cfi_def_cfa_register %rbp
	subq	$16, %rsp
	movq	%rdi, -8(%rbp)
	movq	-8(%rbp), %rdi
	callq	_ZNK5boost12interprocess10offset_ptrI8mem_infolmLm0EE3getEv
	addq	$16, %rsp
	popq	%rbp
	.cfi_def_cfa %rsp, 8
	retq
.Lfunc_end28:
	.size	_ZNK5boost12interprocess10offset_ptrI8mem_infolmLm0EEptEv, .Lfunc_end28-_ZNK5boost12interprocess10offset_ptrI8mem_infolmLm0EEptEv
	.cfi_endproc
                                        # -- End function
	.section	.text._ZN5boost9container12vec_iteratorINS_12interprocess10offset_ptrI8mem_infolmLm0EEELb0EEppEi,"axG",@progbits,_ZN5boost9container12vec_iteratorINS_12interprocess10offset_ptrI8mem_infolmLm0EEELb0EEppEi,comdat
	.weak	_ZN5boost9container12vec_iteratorINS_12interprocess10offset_ptrI8mem_infolmLm0EEELb0EEppEi # -- Begin function _ZN5boost9container12vec_iteratorINS_12interprocess10offset_ptrI8mem_infolmLm0EEELb0EEppEi
	.p2align	4, 0x90
	.type	_ZN5boost9container12vec_iteratorINS_12interprocess10offset_ptrI8mem_infolmLm0EEELb0EEppEi,@function
_ZN5boost9container12vec_iteratorINS_12interprocess10offset_ptrI8mem_infolmLm0EEELb0EEppEi: # @_ZN5boost9container12vec_iteratorINS_12interprocess10offset_ptrI8mem_infolmLm0EEELb0EEppEi
	.cfi_startproc
# %bb.0:
	pushq	%rbp
	.cfi_def_cfa_offset 16
	.cfi_offset %rbp, -16
	movq	%rsp, %rbp
	.cfi_def_cfa_register %rbp
	subq	$64, %rsp
	movq	%rdi, %rax
	movq	%rdi, %rcx
	movq	%rcx, -8(%rbp)
	movq	%rsi, -16(%rbp)
	movl	%edx, -20(%rbp)
	movq	-16(%rbp), %rcx
	movq	%rdi, -40(%rbp)         # 8-byte Spill
	movq	%rcx, %rdi
	movq	%rax, -48(%rbp)         # 8-byte Spill
	movq	%rcx, -56(%rbp)         # 8-byte Spill
	callq	_ZNK5boost12interprocess10offset_ptrI8mem_infolmLm0EEntEv
	xorb	$-1, %al
	testb	$1, %al
	jne	.LBB29_1
	jmp	.LBB29_2
.LBB29_1:
	jmp	.LBB29_3
.LBB29_2:
	movabsq	$.L.str.98, %rdi
	movabsq	$.L.str.86, %rsi
	movl	$155, %edx
	movabsq	$.L__PRETTY_FUNCTION__._ZN5boost9container12vec_iteratorINS_12interprocess10offset_ptrI8mem_infolmLm0EEELb0EEppEi, %rcx
	callq	__assert_fail
.LBB29_3:
	xorl	%edx, %edx
	leaq	-32(%rbp), %rdi
	movq	-56(%rbp), %rsi         # 8-byte Reload
	callq	_ZN5boost12interprocess10offset_ptrI8mem_infolmLm0EEppEi
	movq	-40(%rbp), %rdi         # 8-byte Reload
	leaq	-32(%rbp), %rsi
	callq	_ZN5boost9container12vec_iteratorINS_12interprocess10offset_ptrI8mem_infolmLm0EEELb0EEC2ES5_
	movq	-48(%rbp), %rax         # 8-byte Reload
	addq	$64, %rsp
	popq	%rbp
	.cfi_def_cfa %rsp, 8
	retq
.Lfunc_end29:
	.size	_ZN5boost9container12vec_iteratorINS_12interprocess10offset_ptrI8mem_infolmLm0EEELb0EEppEi, .Lfunc_end29-_ZN5boost9container12vec_iteratorINS_12interprocess10offset_ptrI8mem_infolmLm0EEELb0EEppEi
	.cfi_endproc
                                        # -- End function
	.text
	.globl	_Z11setWritableiPvi     # -- Begin function _Z11setWritableiPvi
	.p2align	4, 0x90
	.type	_Z11setWritableiPvi,@function
_Z11setWritableiPvi:                    # @_Z11setWritableiPvi
.Lfunc_begin4:
	.cfi_startproc
	.cfi_personality 3, __gxx_personality_v0
	.cfi_lsda 3, .Lexception4
# %bb.0:
	pushq	%rbp
	.cfi_def_cfa_offset 16
	.cfi_offset %rbp, -16
	movq	%rsp, %rbp
	.cfi_def_cfa_register %rbp
	subq	$80, %rsp
	movl	%edi, -4(%rbp)
	movq	%rsi, -16(%rbp)
	movl	%edx, -20(%rbp)
	movq	mtx(%rip), %rsi
	leaq	-40(%rbp), %rdi
	callq	_ZN5boost12interprocess11scoped_lockINS0_18interprocess_mutexEEC2ERS2_
	movb	$0, -41(%rbp)
	movl	-4(%rbp), %edi
.Ltmp22:
	callq	_Z8getCounti
.Ltmp23:
	movl	%eax, -64(%rbp)         # 4-byte Spill
	jmp	.LBB30_1
.LBB30_1:
	movl	-64(%rbp), %eax         # 4-byte Reload
	cmpl	$1, %eax
	jne	.LBB30_4
# %bb.2:
	movb	$1, -41(%rbp)
	movq	-16(%rbp), %rdi
	movslq	-20(%rbp), %rsi
	movl	$3, %edx
	callq	mprotect
	jmp	.LBB30_4
.LBB30_3:
.Ltmp24:
                                        # kill: def $edx killed $edx killed $rdx
	movq	%rax, -56(%rbp)
	movl	%edx, -60(%rbp)
	leaq	-40(%rbp), %rdi
	callq	_ZN5boost12interprocess11scoped_lockINS0_18interprocess_mutexEED2Ev
	jmp	.LBB30_5
.LBB30_4:
	movb	-41(%rbp), %al
	leaq	-40(%rbp), %rdi
	movb	%al, -65(%rbp)          # 1-byte Spill
	callq	_ZN5boost12interprocess11scoped_lockINS0_18interprocess_mutexEED2Ev
	movb	-65(%rbp), %al          # 1-byte Reload
	andb	$1, %al
	movzbl	%al, %eax
	addq	$80, %rsp
	popq	%rbp
	.cfi_def_cfa %rsp, 8
	retq
.LBB30_5:
	.cfi_def_cfa %rbp, 16
	movq	-56(%rbp), %rdi
	callq	_Unwind_Resume
.Lfunc_end30:
	.size	_Z11setWritableiPvi, .Lfunc_end30-_Z11setWritableiPvi
	.cfi_endproc
	.section	.gcc_except_table,"a",@progbits
	.p2align	2
GCC_except_table30:
.Lexception4:
	.byte	255                     # @LPStart Encoding = omit
	.byte	255                     # @TType Encoding = omit
	.byte	1                       # Call site Encoding = uleb128
	.uleb128 .Lcst_end4-.Lcst_begin4
.Lcst_begin4:
	.uleb128 .Lfunc_begin4-.Lfunc_begin4 # >> Call Site 1 <<
	.uleb128 .Ltmp22-.Lfunc_begin4  #   Call between .Lfunc_begin4 and .Ltmp22
	.byte	0                       #     has no landing pad
	.byte	0                       #   On action: cleanup
	.uleb128 .Ltmp22-.Lfunc_begin4  # >> Call Site 2 <<
	.uleb128 .Ltmp23-.Ltmp22        #   Call between .Ltmp22 and .Ltmp23
	.uleb128 .Ltmp24-.Lfunc_begin4  #     jumps to .Ltmp24
	.byte	0                       #   On action: cleanup
	.uleb128 .Ltmp23-.Lfunc_begin4  # >> Call Site 3 <<
	.uleb128 .Lfunc_end30-.Ltmp23   #   Call between .Ltmp23 and .Lfunc_end30
	.byte	0                       #     has no landing pad
	.byte	0                       #   On action: cleanup
.Lcst_end4:
	.p2align	2
                                        # -- End function
	.section	.text._ZN5boost12interprocess11scoped_lockINS0_18interprocess_mutexEEC2ERS2_,"axG",@progbits,_ZN5boost12interprocess11scoped_lockINS0_18interprocess_mutexEEC2ERS2_,comdat
	.weak	_ZN5boost12interprocess11scoped_lockINS0_18interprocess_mutexEEC2ERS2_ # -- Begin function _ZN5boost12interprocess11scoped_lockINS0_18interprocess_mutexEEC2ERS2_
	.p2align	4, 0x90
	.type	_ZN5boost12interprocess11scoped_lockINS0_18interprocess_mutexEEC2ERS2_,@function
_ZN5boost12interprocess11scoped_lockINS0_18interprocess_mutexEEC2ERS2_: # @_ZN5boost12interprocess11scoped_lockINS0_18interprocess_mutexEEC2ERS2_
	.cfi_startproc
# %bb.0:
	pushq	%rbp
	.cfi_def_cfa_offset 16
	.cfi_offset %rbp, -16
	movq	%rsp, %rbp
	.cfi_def_cfa_register %rbp
	subq	$32, %rsp
	movq	%rdi, -8(%rbp)
	movq	%rsi, -16(%rbp)
	movq	-8(%rbp), %rax
	movq	-16(%rbp), %rcx
	movq	%rcx, (%rax)
	movb	$0, 8(%rax)
	movq	(%rax), %rdi
	movq	%rax, -24(%rbp)         # 8-byte Spill
	callq	_ZN5boost12interprocess18interprocess_mutex4lockEv
	movq	-24(%rbp), %rax         # 8-byte Reload
	movb	$1, 8(%rax)
	addq	$32, %rsp
	popq	%rbp
	.cfi_def_cfa %rsp, 8
	retq
.Lfunc_end31:
	.size	_ZN5boost12interprocess11scoped_lockINS0_18interprocess_mutexEEC2ERS2_, .Lfunc_end31-_ZN5boost12interprocess11scoped_lockINS0_18interprocess_mutexEEC2ERS2_
	.cfi_endproc
                                        # -- End function
	.section	.text._ZN5boost12interprocess11scoped_lockINS0_18interprocess_mutexEED2Ev,"axG",@progbits,_ZN5boost12interprocess11scoped_lockINS0_18interprocess_mutexEED2Ev,comdat
	.weak	_ZN5boost12interprocess11scoped_lockINS0_18interprocess_mutexEED2Ev # -- Begin function _ZN5boost12interprocess11scoped_lockINS0_18interprocess_mutexEED2Ev
	.p2align	4, 0x90
	.type	_ZN5boost12interprocess11scoped_lockINS0_18interprocess_mutexEED2Ev,@function
_ZN5boost12interprocess11scoped_lockINS0_18interprocess_mutexEED2Ev: # @_ZN5boost12interprocess11scoped_lockINS0_18interprocess_mutexEED2Ev
.Lfunc_begin5:
	.cfi_startproc
	.cfi_personality 3, __gxx_personality_v0
	.cfi_lsda 3, .Lexception5
# %bb.0:
	pushq	%rbp
	.cfi_def_cfa_offset 16
	.cfi_offset %rbp, -16
	movq	%rsp, %rbp
	.cfi_def_cfa_register %rbp
	subq	$48, %rsp
	movq	%rdi, -8(%rbp)
	movq	-8(%rbp), %rax
	testb	$1, 8(%rax)
	movq	%rax, -32(%rbp)         # 8-byte Spill
	je	.LBB32_8
# %bb.1:
	movq	-32(%rbp), %rax         # 8-byte Reload
	cmpq	$0, (%rax)
	je	.LBB32_8
# %bb.2:
	movq	-32(%rbp), %rax         # 8-byte Reload
	movq	(%rax), %rdi
.Ltmp25:
	callq	_ZN5boost12interprocess18interprocess_mutex6unlockEv
.Ltmp26:
	jmp	.LBB32_3
.LBB32_3:
	jmp	.LBB32_8
.LBB32_4:
.Ltmp27:
                                        # kill: def $edx killed $edx killed $rdx
	movq	%rax, -16(%rbp)
	movl	%edx, -20(%rbp)
# %bb.5:
	movq	-16(%rbp), %rdi
	callq	__cxa_begin_catch
.Ltmp28:
	movq	%rax, -40(%rbp)         # 8-byte Spill
	callq	__cxa_end_catch
.Ltmp29:
	jmp	.LBB32_6
.LBB32_6:
	jmp	.LBB32_7
.LBB32_7:
	addq	$48, %rsp
	popq	%rbp
	.cfi_def_cfa %rsp, 8
	retq
.LBB32_8:
	.cfi_def_cfa %rbp, 16
	jmp	.LBB32_7
.LBB32_9:
.Ltmp30:
                                        # kill: def $edx killed $edx killed $rdx
	movq	%rax, %rdi
	movl	%edx, -44(%rbp)         # 4-byte Spill
	callq	__clang_call_terminate
.Lfunc_end32:
	.size	_ZN5boost12interprocess11scoped_lockINS0_18interprocess_mutexEED2Ev, .Lfunc_end32-_ZN5boost12interprocess11scoped_lockINS0_18interprocess_mutexEED2Ev
	.cfi_endproc
	.section	.gcc_except_table,"a",@progbits
	.p2align	2
GCC_except_table32:
.Lexception5:
	.byte	255                     # @LPStart Encoding = omit
	.byte	3                       # @TType Encoding = udata4
	.uleb128 .Lttbase2-.Lttbaseref2
.Lttbaseref2:
	.byte	1                       # Call site Encoding = uleb128
	.uleb128 .Lcst_end5-.Lcst_begin5
.Lcst_begin5:
	.uleb128 .Ltmp25-.Lfunc_begin5  # >> Call Site 1 <<
	.uleb128 .Ltmp26-.Ltmp25        #   Call between .Ltmp25 and .Ltmp26
	.uleb128 .Ltmp27-.Lfunc_begin5  #     jumps to .Ltmp27
	.byte	1                       #   On action: 1
	.uleb128 .Ltmp26-.Lfunc_begin5  # >> Call Site 2 <<
	.uleb128 .Ltmp28-.Ltmp26        #   Call between .Ltmp26 and .Ltmp28
	.byte	0                       #     has no landing pad
	.byte	0                       #   On action: cleanup
	.uleb128 .Ltmp28-.Lfunc_begin5  # >> Call Site 3 <<
	.uleb128 .Ltmp29-.Ltmp28        #   Call between .Ltmp28 and .Ltmp29
	.uleb128 .Ltmp30-.Lfunc_begin5  #     jumps to .Ltmp30
	.byte	1                       #   On action: 1
.Lcst_end5:
	.byte	1                       # >> Action Record 1 <<
                                        #   Catch TypeInfo 1
	.byte	0                       #   No further actions
	.p2align	2
                                        # >> Catch TypeInfos <<
	.long	0                       # TypeInfo 1
.Lttbase2:
	.p2align	2
                                        # -- End function
	.text
	.globl	_Z9getNewMemi           # -- Begin function _Z9getNewMemi
	.p2align	4, 0x90
	.type	_Z9getNewMemi,@function
_Z9getNewMemi:                          # @_Z9getNewMemi
.Lfunc_begin6:
	.cfi_startproc
	.cfi_personality 3, __gxx_personality_v0
	.cfi_lsda 3, .Lexception6
# %bb.0:
	pushq	%rbp
	.cfi_def_cfa_offset 16
	.cfi_offset %rbp, -16
	movq	%rsp, %rbp
	.cfi_def_cfa_register %rbp
	subq	$512, %rsp              # imm = 0x200
	movl	%edi, -8(%rbp)
	movq	mtx, %rsi
	leaq	-24(%rbp), %rdi
	callq	_ZN5boost12interprocess11scoped_lockINS0_18interprocess_mutexEEC2ERS2_
	movabsq	$mem_manager, %rdi
	callq	_ZNK5boost12interprocess10offset_ptrINS_9container6vectorI8mem_infoNS0_9allocatorIS4_NS0_15segment_managerIcNS0_15rbtree_best_fitINS0_12mutex_familyENS1_IvlmLm0EEELm0EEENS0_10iset_indexEEEEEvEElmLm0EEptEv
	leaq	-32(%rbp), %rdi
	movq	%rax, %rsi
	callq	_ZN5boost9container6vectorI8mem_infoNS_12interprocess9allocatorIS2_NS3_15segment_managerIcNS3_15rbtree_best_fitINS3_12mutex_familyENS3_10offset_ptrIvlmLm0EEELm0EEENS3_10iset_indexEEEEEvE5beginEv
.LBB33_1:                               # =>This Inner Loop Header: Depth=1
	movabsq	$mem_manager, %rdi
	callq	_ZNK5boost12interprocess10offset_ptrINS_9container6vectorI8mem_infoNS0_9allocatorIS4_NS0_15segment_managerIcNS0_15rbtree_best_fitINS0_12mutex_familyENS1_IvlmLm0EEELm0EEENS0_10iset_indexEEEEEvEElmLm0EEptEv
	leaq	-40(%rbp), %rdi
	movq	%rax, %rsi
	callq	_ZN5boost9container6vectorI8mem_infoNS_12interprocess9allocatorIS2_NS3_15segment_managerIcNS3_15rbtree_best_fitINS3_12mutex_familyENS3_10offset_ptrIvlmLm0EEELm0EEENS3_10iset_indexEEEEEvE3endEv
	leaq	-32(%rbp), %rdi
	leaq	-40(%rbp), %rsi
	callq	_ZN5boost9containerneERKNS0_12vec_iteratorINS_12interprocess10offset_ptrI8mem_infolmLm0EEELb0EEES8_
	testb	$1, %al
	jne	.LBB33_2
	jmp	.LBB33_24
.LBB33_2:                               #   in Loop: Header=BB33_1 Depth=1
	leaq	-56(%rbp), %rax
	leaq	-32(%rbp), %rsi
	movq	%rax, %rdi
	movq	%rax, -344(%rbp)        # 8-byte Spill
	callq	_ZNK5boost9container12vec_iteratorINS_12interprocess10offset_ptrI8mem_infolmLm0EEELb0EEptEv
	movq	-344(%rbp), %rdi        # 8-byte Reload
	callq	_ZNK5boost12interprocess10offset_ptrI8mem_infolmLm0EEptEv
	movl	4(%rax), %edi
.Ltmp33:
	callq	_Z14getAlignedAddri
.Ltmp34:
	movl	%eax, -348(%rbp)        # 4-byte Spill
	jmp	.LBB33_3
.LBB33_3:                               #   in Loop: Header=BB33_1 Depth=1
	movl	-348(%rbp), %eax        # 4-byte Reload
	movl	%eax, -44(%rbp)
	leaq	-80(%rbp), %rdi
	leaq	-32(%rbp), %rsi
	callq	_ZNK5boost9container12vec_iteratorINS_12interprocess10offset_ptrI8mem_infolmLm0EEELb0EEptEv
	leaq	-80(%rbp), %rdi
	callq	_ZNK5boost12interprocess10offset_ptrI8mem_infolmLm0EEptEv
	xorl	%ecx, %ecx
                                        # kill: def $cl killed $cl killed $ecx
	movl	(%rax), %edx
	subl	-44(%rbp), %edx
	movl	%edx, -72(%rbp)
	movl	-72(%rbp), %edx
	cmpl	-8(%rbp), %edx
	movb	%cl, -349(%rbp)         # 1-byte Spill
	jl	.LBB33_5
# %bb.4:                                #   in Loop: Header=BB33_1 Depth=1
	leaq	-88(%rbp), %rdi
	leaq	-32(%rbp), %rsi
	callq	_ZNK5boost9container12vec_iteratorINS_12interprocess10offset_ptrI8mem_infolmLm0EEELb0EEptEv
	leaq	-88(%rbp), %rdi
	callq	_ZNK5boost12interprocess10offset_ptrI8mem_infolmLm0EEptEv
	cmpl	$0, 8(%rax)
	sete	%cl
	movb	%cl, -349(%rbp)         # 1-byte Spill
.LBB33_5:                               #   in Loop: Header=BB33_1 Depth=1
	movb	-349(%rbp), %al         # 1-byte Reload
	testb	$1, %al
	jne	.LBB33_6
	jmp	.LBB33_22
.LBB33_6:
	movl	-44(%rbp), %eax
	leaq	-96(%rbp), %rdi
	leaq	-32(%rbp), %rsi
	movl	%eax, -356(%rbp)        # 4-byte Spill
	callq	_ZNK5boost9container12vec_iteratorINS_12interprocess10offset_ptrI8mem_infolmLm0EEELb0EEptEv
	leaq	-96(%rbp), %rdi
	callq	_ZNK5boost12interprocess10offset_ptrI8mem_infolmLm0EEptEv
	movl	-356(%rbp), %ecx        # 4-byte Reload
	cmpl	4(%rax), %ecx
	jne	.LBB33_13
# %bb.7:
	movl	-72(%rbp), %eax
	cmpl	-8(%rbp), %eax
	jne	.LBB33_10
# %bb.8:
	leaq	-104(%rbp), %rdi
	leaq	-32(%rbp), %rsi
	callq	_ZNK5boost9container12vec_iteratorINS_12interprocess10offset_ptrI8mem_infolmLm0EEELb0EEptEv
	leaq	-104(%rbp), %rdi
	callq	_ZNK5boost12interprocess10offset_ptrI8mem_infolmLm0EEptEv
	movl	$1, 8(%rax)
	movl	-44(%rbp), %ecx
	movl	%ecx, -4(%rbp)
	movl	$1, -108(%rbp)
	jmp	.LBB33_26
.LBB33_9:
.Ltmp51:
                                        # kill: def $edx killed $edx killed $rdx
	movq	%rax, -64(%rbp)
	movl	%edx, -68(%rbp)
	leaq	-24(%rbp), %rdi
	callq	_ZN5boost12interprocess11scoped_lockINS0_18interprocess_mutexEED2Ev
	jmp	.LBB33_27
.LBB33_10:
	leaq	-120(%rbp), %rax
	leaq	-32(%rbp), %rcx
	movq	%rax, %rdi
	movq	%rcx, %rsi
	movq	%rax, -368(%rbp)        # 8-byte Spill
	movq	%rcx, -376(%rbp)        # 8-byte Spill
	callq	_ZNK5boost9container12vec_iteratorINS_12interprocess10offset_ptrI8mem_infolmLm0EEELb0EEptEv
	movq	-368(%rbp), %rdi        # 8-byte Reload
	callq	_ZNK5boost12interprocess10offset_ptrI8mem_infolmLm0EEptEv
	movl	4(%rax), %edx
	movl	-8(%rbp), %r8d
	addl	%r8d, %edx
	movl	%edx, -112(%rbp)
	leaq	-144(%rbp), %rax
	movq	%rax, %rdi
	movq	-376(%rbp), %rsi        # 8-byte Reload
	movq	%rax, -384(%rbp)        # 8-byte Spill
	callq	_ZNK5boost9container12vec_iteratorINS_12interprocess10offset_ptrI8mem_infolmLm0EEELb0EEptEv
	movq	-384(%rbp), %rdi        # 8-byte Reload
	callq	_ZNK5boost12interprocess10offset_ptrI8mem_infolmLm0EEptEv
	movl	4(%rax), %esi
	movl	-112(%rbp), %edx
.Ltmp47:
	leaq	-136(%rbp), %rdi
	callq	_ZN8mem_infoC2Eii
.Ltmp48:
	jmp	.LBB33_11
.LBB33_11:
	movl	$1, -128(%rbp)
	movl	$mem_manager, %edi
	callq	_ZNK5boost12interprocess10offset_ptrINS_9container6vectorI8mem_infoNS0_9allocatorIS4_NS0_15segment_managerIcNS0_15rbtree_best_fitINS0_12mutex_familyENS1_IvlmLm0EEELm0EEENS0_10iset_indexEEEEEvEElmLm0EEptEv
	leaq	-152(%rbp), %rcx
	leaq	-32(%rbp), %rsi
	movq	%rcx, %rdi
	movq	%rax, -392(%rbp)        # 8-byte Spill
	movq	%rcx, -400(%rbp)        # 8-byte Spill
	callq	_ZN5boost9container12vec_iteratorINS_12interprocess10offset_ptrI8mem_infolmLm0EEELb1EEC2ERKNS1_IS5_Lb0EEE
.Ltmp49:
	leaq	-160(%rbp), %rdi
	leaq	-136(%rbp), %rcx
	movq	-392(%rbp), %rsi        # 8-byte Reload
	movq	-400(%rbp), %rdx        # 8-byte Reload
	callq	_ZN5boost9container6vectorI8mem_infoNS_12interprocess9allocatorIS2_NS3_15segment_managerIcNS3_15rbtree_best_fitINS3_12mutex_familyENS3_10offset_ptrIvlmLm0EEELm0EEENS3_10iset_indexEEEEEvE6insertENS0_12vec_iteratorINS8_IS2_lmLm0EEELb1EEERKS2_
.Ltmp50:
	jmp	.LBB33_12
.LBB33_12:
	leaq	-168(%rbp), %rdi
	leaq	-32(%rbp), %rsi
	movl	$1, %edx
	callq	_ZN5boost9containerplERKNS0_12vec_iteratorINS_12interprocess10offset_ptrI8mem_infolmLm0EEELb0EEEl
	movl	-112(%rbp), %eax
	leaq	-176(%rbp), %rdi
	leaq	-168(%rbp), %rsi
	movl	%eax, -404(%rbp)        # 4-byte Spill
	callq	_ZNK5boost9container12vec_iteratorINS_12interprocess10offset_ptrI8mem_infolmLm0EEELb0EEptEv
	leaq	-176(%rbp), %rdi
	callq	_ZNK5boost12interprocess10offset_ptrI8mem_infolmLm0EEptEv
	movl	-404(%rbp), %ecx        # 4-byte Reload
	movl	%ecx, 4(%rax)
	movl	-44(%rbp), %ecx
	movl	%ecx, -4(%rbp)
	movl	$1, -108(%rbp)
	jmp	.LBB33_26
.LBB33_13:
	movl	-72(%rbp), %eax
	cmpl	-8(%rbp), %eax
	jne	.LBB33_17
# %bb.14:
	leaq	-200(%rbp), %rax
	leaq	-32(%rbp), %rsi
	movq	%rax, %rdi
	movq	%rax, -416(%rbp)        # 8-byte Spill
	callq	_ZNK5boost9container12vec_iteratorINS_12interprocess10offset_ptrI8mem_infolmLm0EEELb0EEptEv
	movq	-416(%rbp), %rdi        # 8-byte Reload
	callq	_ZNK5boost12interprocess10offset_ptrI8mem_infolmLm0EEptEv
	movl	4(%rax), %esi
	movl	-44(%rbp), %edx
.Ltmp43:
	leaq	-192(%rbp), %rdi
	callq	_ZN8mem_infoC2Eii
.Ltmp44:
	jmp	.LBB33_15
.LBB33_15:
	movl	$mem_manager, %edi
	callq	_ZNK5boost12interprocess10offset_ptrINS_9container6vectorI8mem_infoNS0_9allocatorIS4_NS0_15segment_managerIcNS0_15rbtree_best_fitINS0_12mutex_familyENS1_IvlmLm0EEELm0EEENS0_10iset_indexEEEEEvEElmLm0EEptEv
	leaq	-208(%rbp), %rcx
	leaq	-32(%rbp), %rsi
	movq	%rcx, %rdi
	movq	%rax, -424(%rbp)        # 8-byte Spill
	movq	%rcx, -432(%rbp)        # 8-byte Spill
	callq	_ZN5boost9container12vec_iteratorINS_12interprocess10offset_ptrI8mem_infolmLm0EEELb1EEC2ERKNS1_IS5_Lb0EEE
.Ltmp45:
	leaq	-216(%rbp), %rdi
	leaq	-192(%rbp), %rcx
	movq	-424(%rbp), %rsi        # 8-byte Reload
	movq	-432(%rbp), %rdx        # 8-byte Reload
	callq	_ZN5boost9container6vectorI8mem_infoNS_12interprocess9allocatorIS2_NS3_15segment_managerIcNS3_15rbtree_best_fitINS3_12mutex_familyENS3_10offset_ptrIvlmLm0EEELm0EEENS3_10iset_indexEEEEEvE6insertENS0_12vec_iteratorINS8_IS2_lmLm0EEELb1EEERKS2_
.Ltmp46:
	jmp	.LBB33_16
.LBB33_16:
	leaq	-224(%rbp), %rdi
	leaq	-32(%rbp), %rsi
	movl	$1, %edx
	callq	_ZN5boost9containerplERKNS0_12vec_iteratorINS_12interprocess10offset_ptrI8mem_infolmLm0EEELb0EEEl
	leaq	-232(%rbp), %rdi
	leaq	-224(%rbp), %rsi
	callq	_ZNK5boost9container12vec_iteratorINS_12interprocess10offset_ptrI8mem_infolmLm0EEELb0EEptEv
	leaq	-232(%rbp), %rdi
	callq	_ZNK5boost12interprocess10offset_ptrI8mem_infolmLm0EEptEv
	movl	$1, 8(%rax)
	movl	-44(%rbp), %ecx
	leaq	-240(%rbp), %rdi
	leaq	-224(%rbp), %rsi
	movl	%ecx, -436(%rbp)        # 4-byte Spill
	callq	_ZNK5boost9container12vec_iteratorINS_12interprocess10offset_ptrI8mem_infolmLm0EEELb0EEptEv
	leaq	-240(%rbp), %rdi
	callq	_ZNK5boost12interprocess10offset_ptrI8mem_infolmLm0EEptEv
	movl	-436(%rbp), %ecx        # 4-byte Reload
	movl	%ecx, 4(%rax)
	movl	-44(%rbp), %ecx
	movl	%ecx, -4(%rbp)
	movl	$1, -108(%rbp)
	jmp	.LBB33_26
.LBB33_17:
	leaq	-256(%rbp), %rax
	leaq	-32(%rbp), %rcx
	movq	%rax, %rdi
	movq	%rcx, %rsi
	movq	%rax, -448(%rbp)        # 8-byte Spill
	movq	%rcx, -456(%rbp)        # 8-byte Spill
	callq	_ZNK5boost9container12vec_iteratorINS_12interprocess10offset_ptrI8mem_infolmLm0EEELb0EEptEv
	movq	-448(%rbp), %rdi        # 8-byte Reload
	callq	_ZNK5boost12interprocess10offset_ptrI8mem_infolmLm0EEptEv
	movl	4(%rax), %edx
	movl	%edx, -244(%rbp)
	movl	-44(%rbp), %edx
	movl	-8(%rbp), %r8d
	addl	%r8d, %edx
	leaq	-264(%rbp), %rax
	movq	%rax, %rdi
	movq	-456(%rbp), %rsi        # 8-byte Reload
	movl	%edx, -460(%rbp)        # 4-byte Spill
	movq	%rax, -472(%rbp)        # 8-byte Spill
	callq	_ZNK5boost9container12vec_iteratorINS_12interprocess10offset_ptrI8mem_infolmLm0EEELb0EEptEv
	movq	-472(%rbp), %rdi        # 8-byte Reload
	callq	_ZNK5boost12interprocess10offset_ptrI8mem_infolmLm0EEptEv
	movl	-460(%rbp), %edx        # 4-byte Reload
	movl	%edx, 4(%rax)
	movl	-44(%rbp), %edx
	movl	-8(%rbp), %r8d
	movl	%edx, %r9d
	addl	%r8d, %r9d
.Ltmp35:
	leaq	-280(%rbp), %rdi
	movl	%edx, %esi
	movl	%r9d, %edx
	callq	_ZN8mem_infoC2Eii
.Ltmp36:
	jmp	.LBB33_18
.LBB33_18:
	movl	$1, -272(%rbp)
	movl	$mem_manager, %edi
	callq	_ZNK5boost12interprocess10offset_ptrINS_9container6vectorI8mem_infoNS0_9allocatorIS4_NS0_15segment_managerIcNS0_15rbtree_best_fitINS0_12mutex_familyENS1_IvlmLm0EEELm0EEENS0_10iset_indexEEEEEvEElmLm0EEptEv
	leaq	-288(%rbp), %rcx
	leaq	-32(%rbp), %rsi
	movq	%rcx, %rdi
	movq	%rax, -480(%rbp)        # 8-byte Spill
	movq	%rcx, -488(%rbp)        # 8-byte Spill
	callq	_ZN5boost9container12vec_iteratorINS_12interprocess10offset_ptrI8mem_infolmLm0EEELb1EEC2ERKNS1_IS5_Lb0EEE
.Ltmp37:
	leaq	-296(%rbp), %rdi
	leaq	-280(%rbp), %rcx
	movq	-480(%rbp), %rsi        # 8-byte Reload
	movq	-488(%rbp), %rdx        # 8-byte Reload
	callq	_ZN5boost9container6vectorI8mem_infoNS_12interprocess9allocatorIS2_NS3_15segment_managerIcNS3_15rbtree_best_fitINS3_12mutex_familyENS3_10offset_ptrIvlmLm0EEELm0EEENS3_10iset_indexEEEEEvE6insertENS0_12vec_iteratorINS8_IS2_lmLm0EEELb1EEERKS2_
.Ltmp38:
	jmp	.LBB33_19
.LBB33_19:
	movl	-244(%rbp), %esi
	movl	-44(%rbp), %edx
.Ltmp39:
	leaq	-312(%rbp), %rdi
	callq	_ZN8mem_infoC2Eii
.Ltmp40:
	jmp	.LBB33_20
.LBB33_20:
	movl	$mem_manager, %edi
	callq	_ZNK5boost12interprocess10offset_ptrINS_9container6vectorI8mem_infoNS0_9allocatorIS4_NS0_15segment_managerIcNS0_15rbtree_best_fitINS0_12mutex_familyENS1_IvlmLm0EEELm0EEENS0_10iset_indexEEEEEvEElmLm0EEptEv
	leaq	-320(%rbp), %rcx
	leaq	-32(%rbp), %rsi
	movq	%rcx, %rdi
	movq	%rax, -496(%rbp)        # 8-byte Spill
	movq	%rcx, -504(%rbp)        # 8-byte Spill
	callq	_ZN5boost9container12vec_iteratorINS_12interprocess10offset_ptrI8mem_infolmLm0EEELb1EEC2ERKNS1_IS5_Lb0EEE
.Ltmp41:
	leaq	-328(%rbp), %rdi
	leaq	-312(%rbp), %rcx
	movq	-496(%rbp), %rsi        # 8-byte Reload
	movq	-504(%rbp), %rdx        # 8-byte Reload
	callq	_ZN5boost9container6vectorI8mem_infoNS_12interprocess9allocatorIS2_NS3_15segment_managerIcNS3_15rbtree_best_fitINS3_12mutex_familyENS3_10offset_ptrIvlmLm0EEELm0EEENS3_10iset_indexEEEEEvE6insertENS0_12vec_iteratorINS8_IS2_lmLm0EEELb1EEERKS2_
.Ltmp42:
	jmp	.LBB33_21
.LBB33_21:
	movl	-44(%rbp), %eax
	movl	%eax, -4(%rbp)
	movl	$1, -108(%rbp)
	jmp	.LBB33_26
.LBB33_22:                              #   in Loop: Header=BB33_1 Depth=1
	jmp	.LBB33_23
.LBB33_23:                              #   in Loop: Header=BB33_1 Depth=1
	xorl	%edx, %edx
	leaq	-336(%rbp), %rdi
	leaq	-32(%rbp), %rsi
	callq	_ZN5boost9container12vec_iteratorINS_12interprocess10offset_ptrI8mem_infolmLm0EEELb0EEppEi
	jmp	.LBB33_1
.LBB33_24:
.Ltmp31:
	movl	$.L.str.7, %edi
	xorl	%eax, %eax
                                        # kill: def $al killed $al killed $eax
	callq	printf
.Ltmp32:
	jmp	.LBB33_25
.LBB33_25:
	xorl	%edi, %edi
	callq	exit
.LBB33_26:
	leaq	-24(%rbp), %rdi
	callq	_ZN5boost12interprocess11scoped_lockINS0_18interprocess_mutexEED2Ev
	movl	-4(%rbp), %eax
	addq	$512, %rsp              # imm = 0x200
	popq	%rbp
	.cfi_def_cfa %rsp, 8
	retq
.LBB33_27:
	.cfi_def_cfa %rbp, 16
	movq	-64(%rbp), %rdi
	callq	_Unwind_Resume
.Lfunc_end33:
	.size	_Z9getNewMemi, .Lfunc_end33-_Z9getNewMemi
	.cfi_endproc
	.section	.gcc_except_table,"a",@progbits
	.p2align	2
GCC_except_table33:
.Lexception6:
	.byte	255                     # @LPStart Encoding = omit
	.byte	255                     # @TType Encoding = omit
	.byte	1                       # Call site Encoding = uleb128
	.uleb128 .Lcst_end6-.Lcst_begin6
.Lcst_begin6:
	.uleb128 .Lfunc_begin6-.Lfunc_begin6 # >> Call Site 1 <<
	.uleb128 .Ltmp33-.Lfunc_begin6  #   Call between .Lfunc_begin6 and .Ltmp33
	.byte	0                       #     has no landing pad
	.byte	0                       #   On action: cleanup
	.uleb128 .Ltmp33-.Lfunc_begin6  # >> Call Site 2 <<
	.uleb128 .Ltmp32-.Ltmp33        #   Call between .Ltmp33 and .Ltmp32
	.uleb128 .Ltmp51-.Lfunc_begin6  #     jumps to .Ltmp51
	.byte	0                       #   On action: cleanup
	.uleb128 .Ltmp32-.Lfunc_begin6  # >> Call Site 3 <<
	.uleb128 .Lfunc_end33-.Ltmp32   #   Call between .Ltmp32 and .Lfunc_end33
	.byte	0                       #     has no landing pad
	.byte	0                       #   On action: cleanup
.Lcst_end6:
	.p2align	2
                                        # -- End function
	.section	.text._ZN8mem_infoC2Eii,"axG",@progbits,_ZN8mem_infoC2Eii,comdat
	.weak	_ZN8mem_infoC2Eii       # -- Begin function _ZN8mem_infoC2Eii
	.p2align	4, 0x90
	.type	_ZN8mem_infoC2Eii,@function
_ZN8mem_infoC2Eii:                      # @_ZN8mem_infoC2Eii
	.cfi_startproc
# %bb.0:
	pushq	%rbp
	.cfi_def_cfa_offset 16
	.cfi_offset %rbp, -16
	movq	%rsp, %rbp
	.cfi_def_cfa_register %rbp
	movq	%rdi, -8(%rbp)
	movl	%esi, -12(%rbp)
	movl	%edx, -16(%rbp)
	movq	-8(%rbp), %rax
	movl	-12(%rbp), %ecx
	movl	%ecx, 4(%rax)
	movl	-16(%rbp), %ecx
	movl	%ecx, (%rax)
	movl	$0, 8(%rax)
	popq	%rbp
	.cfi_def_cfa %rsp, 8
	retq
.Lfunc_end34:
	.size	_ZN8mem_infoC2Eii, .Lfunc_end34-_ZN8mem_infoC2Eii
	.cfi_endproc
                                        # -- End function
	.section	.text._ZN5boost9container6vectorI8mem_infoNS_12interprocess9allocatorIS2_NS3_15segment_managerIcNS3_15rbtree_best_fitINS3_12mutex_familyENS3_10offset_ptrIvlmLm0EEELm0EEENS3_10iset_indexEEEEEvE6insertENS0_12vec_iteratorINS8_IS2_lmLm0EEELb1EEERKS2_,"axG",@progbits,_ZN5boost9container6vectorI8mem_infoNS_12interprocess9allocatorIS2_NS3_15segment_managerIcNS3_15rbtree_best_fitINS3_12mutex_familyENS3_10offset_ptrIvlmLm0EEELm0EEENS3_10iset_indexEEEEEvE6insertENS0_12vec_iteratorINS8_IS2_lmLm0EEELb1EEERKS2_,comdat
	.weak	_ZN5boost9container6vectorI8mem_infoNS_12interprocess9allocatorIS2_NS3_15segment_managerIcNS3_15rbtree_best_fitINS3_12mutex_familyENS3_10offset_ptrIvlmLm0EEELm0EEENS3_10iset_indexEEEEEvE6insertENS0_12vec_iteratorINS8_IS2_lmLm0EEELb1EEERKS2_ # -- Begin function _ZN5boost9container6vectorI8mem_infoNS_12interprocess9allocatorIS2_NS3_15segment_managerIcNS3_15rbtree_best_fitINS3_12mutex_familyENS3_10offset_ptrIvlmLm0EEELm0EEENS3_10iset_indexEEEEEvE6insertENS0_12vec_iteratorINS8_IS2_lmLm0EEELb1EEERKS2_
	.p2align	4, 0x90
	.type	_ZN5boost9container6vectorI8mem_infoNS_12interprocess9allocatorIS2_NS3_15segment_managerIcNS3_15rbtree_best_fitINS3_12mutex_familyENS3_10offset_ptrIvlmLm0EEELm0EEENS3_10iset_indexEEEEEvE6insertENS0_12vec_iteratorINS8_IS2_lmLm0EEELb1EEERKS2_,@function
_ZN5boost9container6vectorI8mem_infoNS_12interprocess9allocatorIS2_NS3_15segment_managerIcNS3_15rbtree_best_fitINS3_12mutex_familyENS3_10offset_ptrIvlmLm0EEELm0EEENS3_10iset_indexEEEEEvE6insertENS0_12vec_iteratorINS8_IS2_lmLm0EEELb1EEERKS2_: # @_ZN5boost9container6vectorI8mem_infoNS_12interprocess9allocatorIS2_NS3_15segment_managerIcNS3_15rbtree_best_fitINS3_12mutex_familyENS3_10offset_ptrIvlmLm0EEELm0EEENS3_10iset_indexEEEEEvE6insertENS0_12vec_iteratorINS8_IS2_lmLm0EEELb1EEERKS2_
	.cfi_startproc
# %bb.0:
	pushq	%rbp
	.cfi_def_cfa_offset 16
	.cfi_offset %rbp, -16
	movq	%rsp, %rbp
	.cfi_def_cfa_register %rbp
	subq	$32, %rsp
	movq	%rdi, %rax
	movq	%rdi, %r8
	movq	%r8, -8(%rbp)
	movq	%rsi, -16(%rbp)
	movq	%rcx, -24(%rbp)
	movq	-16(%rbp), %rsi
	movq	-24(%rbp), %rcx
	movq	%rax, -32(%rbp)         # 8-byte Spill
	callq	_ZN5boost9container6vectorI8mem_infoNS_12interprocess9allocatorIS2_NS3_15segment_managerIcNS3_15rbtree_best_fitINS3_12mutex_familyENS3_10offset_ptrIvlmLm0EEELm0EEENS3_10iset_indexEEEEEvE11priv_insertIRKS2_EENS0_12vec_iteratorINS8_IS2_lmLm0EEELb0EEERKNSI_ISJ_Lb1EEEOT_
	movq	-32(%rbp), %rax         # 8-byte Reload
	addq	$32, %rsp
	popq	%rbp
	.cfi_def_cfa %rsp, 8
	retq
.Lfunc_end35:
	.size	_ZN5boost9container6vectorI8mem_infoNS_12interprocess9allocatorIS2_NS3_15segment_managerIcNS3_15rbtree_best_fitINS3_12mutex_familyENS3_10offset_ptrIvlmLm0EEELm0EEENS3_10iset_indexEEEEEvE6insertENS0_12vec_iteratorINS8_IS2_lmLm0EEELb1EEERKS2_, .Lfunc_end35-_ZN5boost9container6vectorI8mem_infoNS_12interprocess9allocatorIS2_NS3_15segment_managerIcNS3_15rbtree_best_fitINS3_12mutex_familyENS3_10offset_ptrIvlmLm0EEELm0EEENS3_10iset_indexEEEEEvE6insertENS0_12vec_iteratorINS8_IS2_lmLm0EEELb1EEERKS2_
	.cfi_endproc
                                        # -- End function
	.section	.text._ZN5boost9container12vec_iteratorINS_12interprocess10offset_ptrI8mem_infolmLm0EEELb1EEC2ERKNS1_IS5_Lb0EEE,"axG",@progbits,_ZN5boost9container12vec_iteratorINS_12interprocess10offset_ptrI8mem_infolmLm0EEELb1EEC2ERKNS1_IS5_Lb0EEE,comdat
	.weak	_ZN5boost9container12vec_iteratorINS_12interprocess10offset_ptrI8mem_infolmLm0EEELb1EEC2ERKNS1_IS5_Lb0EEE # -- Begin function _ZN5boost9container12vec_iteratorINS_12interprocess10offset_ptrI8mem_infolmLm0EEELb1EEC2ERKNS1_IS5_Lb0EEE
	.p2align	4, 0x90
	.type	_ZN5boost9container12vec_iteratorINS_12interprocess10offset_ptrI8mem_infolmLm0EEELb1EEC2ERKNS1_IS5_Lb0EEE,@function
_ZN5boost9container12vec_iteratorINS_12interprocess10offset_ptrI8mem_infolmLm0EEELb1EEC2ERKNS1_IS5_Lb0EEE: # @_ZN5boost9container12vec_iteratorINS_12interprocess10offset_ptrI8mem_infolmLm0EEELb1EEC2ERKNS1_IS5_Lb0EEE
	.cfi_startproc
# %bb.0:
	pushq	%rbp
	.cfi_def_cfa_offset 16
	.cfi_offset %rbp, -16
	movq	%rsp, %rbp
	.cfi_def_cfa_register %rbp
	subq	$32, %rsp
	movq	%rdi, -8(%rbp)
	movq	%rsi, -16(%rbp)
	movq	-8(%rbp), %rdi
	movq	-16(%rbp), %rax
	movq	%rdi, -24(%rbp)         # 8-byte Spill
	movq	%rax, %rdi
	callq	_ZNK5boost9container12vec_iteratorINS_12interprocess10offset_ptrI8mem_infolmLm0EEELb0EE7get_ptrEv
	movq	-24(%rbp), %rdi         # 8-byte Reload
	movq	%rax, %rsi
	callq	_ZN5boost12interprocess10offset_ptrI8mem_infolmLm0EEC2ERKS3_
	addq	$32, %rsp
	popq	%rbp
	.cfi_def_cfa %rsp, 8
	retq
.Lfunc_end36:
	.size	_ZN5boost9container12vec_iteratorINS_12interprocess10offset_ptrI8mem_infolmLm0EEELb1EEC2ERKNS1_IS5_Lb0EEE, .Lfunc_end36-_ZN5boost9container12vec_iteratorINS_12interprocess10offset_ptrI8mem_infolmLm0EEELb1EEC2ERKNS1_IS5_Lb0EEE
	.cfi_endproc
                                        # -- End function
	.section	.text._ZN5boost9containerplERKNS0_12vec_iteratorINS_12interprocess10offset_ptrI8mem_infolmLm0EEELb0EEEl,"axG",@progbits,_ZN5boost9containerplERKNS0_12vec_iteratorINS_12interprocess10offset_ptrI8mem_infolmLm0EEELb0EEEl,comdat
	.weak	_ZN5boost9containerplERKNS0_12vec_iteratorINS_12interprocess10offset_ptrI8mem_infolmLm0EEELb0EEEl # -- Begin function _ZN5boost9containerplERKNS0_12vec_iteratorINS_12interprocess10offset_ptrI8mem_infolmLm0EEELb0EEEl
	.p2align	4, 0x90
	.type	_ZN5boost9containerplERKNS0_12vec_iteratorINS_12interprocess10offset_ptrI8mem_infolmLm0EEELb0EEEl,@function
_ZN5boost9containerplERKNS0_12vec_iteratorINS_12interprocess10offset_ptrI8mem_infolmLm0EEELb0EEEl: # @_ZN5boost9containerplERKNS0_12vec_iteratorINS_12interprocess10offset_ptrI8mem_infolmLm0EEELb0EEEl
	.cfi_startproc
# %bb.0:
	pushq	%rbp
	.cfi_def_cfa_offset 16
	.cfi_offset %rbp, -16
	movq	%rsp, %rbp
	.cfi_def_cfa_register %rbp
	subq	$64, %rsp
	movq	%rdi, %rax
	movq	%rdi, %rcx
	movq	%rcx, -8(%rbp)
	movq	%rsi, -16(%rbp)
	movq	%rdx, -24(%rbp)
	movq	-16(%rbp), %rcx
	movq	%rdi, -48(%rbp)         # 8-byte Spill
	movq	%rcx, %rdi
	movq	%rax, -56(%rbp)         # 8-byte Spill
	callq	_ZNK5boost12interprocess10offset_ptrI8mem_infolmLm0EEcvbEv
	testb	$1, %al
	movb	$1, %al
	movb	%al, -57(%rbp)          # 1-byte Spill
	jne	.LBB37_2
# %bb.1:
	cmpq	$0, -24(%rbp)
	setne	%al
	xorb	$-1, %al
	movb	%al, -57(%rbp)          # 1-byte Spill
.LBB37_2:
	movb	-57(%rbp), %al          # 1-byte Reload
	testb	$1, %al
	jne	.LBB37_3
	jmp	.LBB37_4
.LBB37_3:
	jmp	.LBB37_5
.LBB37_4:
	movabsq	$.L.str.101, %rdi
	movabsq	$.L.str.86, %rsi
	movl	$171, %edx
	movabsq	$.L__PRETTY_FUNCTION__._ZN5boost9containerplERKNS0_12vec_iteratorINS_12interprocess10offset_ptrI8mem_infolmLm0EEELb0EEEl, %rcx
	callq	__assert_fail
.LBB37_5:
	movq	-16(%rbp), %rsi
	leaq	-40(%rbp), %rdi
	callq	_ZN5boost12interprocess10offset_ptrI8mem_infolmLm0EEC2ERKS3_
	movq	-24(%rbp), %rdx
	leaq	-32(%rbp), %rdi
	leaq	-40(%rbp), %rsi
	callq	_ZN5boost12interprocessplENS0_10offset_ptrI8mem_infolmLm0EEEl
	movq	-48(%rbp), %rdi         # 8-byte Reload
	leaq	-32(%rbp), %rsi
	callq	_ZN5boost9container12vec_iteratorINS_12interprocess10offset_ptrI8mem_infolmLm0EEELb0EEC2ES5_
	movq	-56(%rbp), %rax         # 8-byte Reload
	addq	$64, %rsp
	popq	%rbp
	.cfi_def_cfa %rsp, 8
	retq
.Lfunc_end37:
	.size	_ZN5boost9containerplERKNS0_12vec_iteratorINS_12interprocess10offset_ptrI8mem_infolmLm0EEELb0EEEl, .Lfunc_end37-_ZN5boost9containerplERKNS0_12vec_iteratorINS_12interprocess10offset_ptrI8mem_infolmLm0EEELb0EEEl
	.cfi_endproc
                                        # -- End function
	.text
	.globl	_Z8mapToMemi            # -- Begin function _Z8mapToMemi
	.p2align	4, 0x90
	.type	_Z8mapToMemi,@function
_Z8mapToMemi:                           # @_Z8mapToMemi
.Lfunc_begin7:
	.cfi_startproc
	.cfi_personality 3, __gxx_personality_v0
	.cfi_lsda 3, .Lexception7
# %bb.0:
	pushq	%rbp
	.cfi_def_cfa_offset 16
	.cfi_offset %rbp, -16
	movq	%rsp, %rbp
	.cfi_def_cfa_register %rbp
	subq	$96, %rsp
	movl	%edi, -4(%rbp)
	movq	mtx, %rsi
	leaq	-24(%rbp), %rdi
	callq	_ZN5boost12interprocess11scoped_lockINS0_18interprocess_mutexEEC2ERS2_
	movb	$0, -25(%rbp)
	movabsq	$mem_manager, %rdi
	callq	_ZNK5boost12interprocess10offset_ptrINS_9container6vectorI8mem_infoNS0_9allocatorIS4_NS0_15segment_managerIcNS0_15rbtree_best_fitINS0_12mutex_familyENS1_IvlmLm0EEELm0EEENS0_10iset_indexEEEEEvEElmLm0EEptEv
	leaq	-40(%rbp), %rdi
	movq	%rax, %rsi
	callq	_ZN5boost9container6vectorI8mem_infoNS_12interprocess9allocatorIS2_NS3_15segment_managerIcNS3_15rbtree_best_fitINS3_12mutex_familyENS3_10offset_ptrIvlmLm0EEELm0EEENS3_10iset_indexEEEEEvE5beginEv
.LBB38_1:                               # =>This Inner Loop Header: Depth=1
	movabsq	$mem_manager, %rdi
	callq	_ZNK5boost12interprocess10offset_ptrINS_9container6vectorI8mem_infoNS0_9allocatorIS4_NS0_15segment_managerIcNS0_15rbtree_best_fitINS0_12mutex_familyENS1_IvlmLm0EEELm0EEENS0_10iset_indexEEEEEvEElmLm0EEptEv
	leaq	-48(%rbp), %rdi
	movq	%rax, %rsi
	callq	_ZN5boost9container6vectorI8mem_infoNS_12interprocess9allocatorIS2_NS3_15segment_managerIcNS3_15rbtree_best_fitINS3_12mutex_familyENS3_10offset_ptrIvlmLm0EEELm0EEENS3_10iset_indexEEEEEvE3endEv
	leaq	-40(%rbp), %rdi
	leaq	-48(%rbp), %rsi
	callq	_ZN5boost9containerneERKNS0_12vec_iteratorINS_12interprocess10offset_ptrI8mem_infolmLm0EEELb0EEES8_
	testb	$1, %al
	jne	.LBB38_2
	jmp	.LBB38_6
.LBB38_2:                               #   in Loop: Header=BB38_1 Depth=1
	leaq	-56(%rbp), %rdi
	leaq	-40(%rbp), %rsi
	callq	_ZNK5boost9container12vec_iteratorINS_12interprocess10offset_ptrI8mem_infolmLm0EEELb0EEptEv
	leaq	-56(%rbp), %rdi
	callq	_ZNK5boost12interprocess10offset_ptrI8mem_infolmLm0EEptEv
	movl	4(%rax), %ecx
	cmpl	-4(%rbp), %ecx
	jne	.LBB38_4
# %bb.3:
	leaq	-64(%rbp), %rdi
	leaq	-40(%rbp), %rsi
	callq	_ZNK5boost9container12vec_iteratorINS_12interprocess10offset_ptrI8mem_infolmLm0EEELb0EEptEv
	leaq	-64(%rbp), %rdi
	callq	_ZNK5boost12interprocess10offset_ptrI8mem_infolmLm0EEptEv
	movl	8(%rax), %ecx
	addl	$1, %ecx
	movl	%ecx, 8(%rax)
	movb	$1, -25(%rbp)
	jmp	.LBB38_6
.LBB38_4:                               #   in Loop: Header=BB38_1 Depth=1
	jmp	.LBB38_5
.LBB38_5:                               #   in Loop: Header=BB38_1 Depth=1
	xorl	%edx, %edx
	leaq	-72(%rbp), %rdi
	leaq	-40(%rbp), %rsi
	callq	_ZN5boost9container12vec_iteratorINS_12interprocess10offset_ptrI8mem_infolmLm0EEELb0EEppEi
	jmp	.LBB38_1
.LBB38_6:
	testb	$1, -25(%rbp)
	jne	.LBB38_10
# %bb.7:
.Ltmp52:
	movl	$.L.str.8, %edi
	xorl	%eax, %eax
                                        # kill: def $al killed $al killed $eax
	callq	printf
.Ltmp53:
	jmp	.LBB38_8
.LBB38_8:
	xorl	%edi, %edi
	callq	exit
.LBB38_9:
.Ltmp54:
                                        # kill: def $edx killed $edx killed $rdx
	movq	%rax, -80(%rbp)
	movl	%edx, -84(%rbp)
	leaq	-24(%rbp), %rdi
	callq	_ZN5boost12interprocess11scoped_lockINS0_18interprocess_mutexEED2Ev
	jmp	.LBB38_11
.LBB38_10:
	leaq	-24(%rbp), %rdi
	callq	_ZN5boost12interprocess11scoped_lockINS0_18interprocess_mutexEED2Ev
	addq	$96, %rsp
	popq	%rbp
	.cfi_def_cfa %rsp, 8
	retq
.LBB38_11:
	.cfi_def_cfa %rbp, 16
	movq	-80(%rbp), %rdi
	callq	_Unwind_Resume
.Lfunc_end38:
	.size	_Z8mapToMemi, .Lfunc_end38-_Z8mapToMemi
	.cfi_endproc
	.section	.gcc_except_table,"a",@progbits
	.p2align	2
GCC_except_table38:
.Lexception7:
	.byte	255                     # @LPStart Encoding = omit
	.byte	255                     # @TType Encoding = omit
	.byte	1                       # Call site Encoding = uleb128
	.uleb128 .Lcst_end7-.Lcst_begin7
.Lcst_begin7:
	.uleb128 .Lfunc_begin7-.Lfunc_begin7 # >> Call Site 1 <<
	.uleb128 .Ltmp52-.Lfunc_begin7  #   Call between .Lfunc_begin7 and .Ltmp52
	.byte	0                       #     has no landing pad
	.byte	0                       #   On action: cleanup
	.uleb128 .Ltmp52-.Lfunc_begin7  # >> Call Site 2 <<
	.uleb128 .Ltmp53-.Ltmp52        #   Call between .Ltmp52 and .Ltmp53
	.uleb128 .Ltmp54-.Lfunc_begin7  #     jumps to .Ltmp54
	.byte	0                       #   On action: cleanup
	.uleb128 .Ltmp53-.Lfunc_begin7  # >> Call Site 3 <<
	.uleb128 .Lfunc_end38-.Ltmp53   #   Call between .Ltmp53 and .Lfunc_end38
	.byte	0                       #     has no landing pad
	.byte	0                       #   On action: cleanup
.Lcst_end7:
	.p2align	2
                                        # -- End function
	.text
	.globl	_Z8printAllv            # -- Begin function _Z8printAllv
	.p2align	4, 0x90
	.type	_Z8printAllv,@function
_Z8printAllv:                           # @_Z8printAllv
	.cfi_startproc
# %bb.0:
	pushq	%rbp
	.cfi_def_cfa_offset 16
	.cfi_offset %rbp, -16
	movq	%rsp, %rbp
	.cfi_def_cfa_register %rbp
	subq	$32, %rsp
	movabsq	$mem_manager, %rdi
	callq	_ZNK5boost12interprocess10offset_ptrINS_9container6vectorI8mem_infoNS0_9allocatorIS4_NS0_15segment_managerIcNS0_15rbtree_best_fitINS0_12mutex_familyENS1_IvlmLm0EEELm0EEENS0_10iset_indexEEEEEvEElmLm0EEptEv
	leaq	-8(%rbp), %rdi
	movq	%rax, %rsi
	callq	_ZN5boost9container6vectorI8mem_infoNS_12interprocess9allocatorIS2_NS3_15segment_managerIcNS3_15rbtree_best_fitINS3_12mutex_familyENS3_10offset_ptrIvlmLm0EEELm0EEENS3_10iset_indexEEEEEvE5beginEv
.LBB39_1:                               # =>This Inner Loop Header: Depth=1
	movabsq	$mem_manager, %rdi
	callq	_ZNK5boost12interprocess10offset_ptrINS_9container6vectorI8mem_infoNS0_9allocatorIS4_NS0_15segment_managerIcNS0_15rbtree_best_fitINS0_12mutex_familyENS1_IvlmLm0EEELm0EEENS0_10iset_indexEEEEEvEElmLm0EEptEv
	leaq	-16(%rbp), %rdi
	movq	%rax, %rsi
	callq	_ZN5boost9container6vectorI8mem_infoNS_12interprocess9allocatorIS2_NS3_15segment_managerIcNS3_15rbtree_best_fitINS3_12mutex_familyENS3_10offset_ptrIvlmLm0EEELm0EEENS3_10iset_indexEEEEEvE3endEv
	leaq	-8(%rbp), %rdi
	leaq	-16(%rbp), %rsi
	callq	_ZN5boost9containerneERKNS0_12vec_iteratorINS_12interprocess10offset_ptrI8mem_infolmLm0EEELb0EEES8_
	testb	$1, %al
	jne	.LBB39_2
	jmp	.LBB39_4
.LBB39_2:                               #   in Loop: Header=BB39_1 Depth=1
	leaq	-24(%rbp), %rdi
	leaq	-8(%rbp), %rsi
	callq	_ZNK5boost9container12vec_iteratorINS_12interprocess10offset_ptrI8mem_infolmLm0EEELb0EEptEv
	leaq	-24(%rbp), %rdi
	callq	_ZNK5boost12interprocess10offset_ptrI8mem_infolmLm0EEptEv
	movl	4(%rax), %esi
	movabsq	$.L.str.9, %rdi
	movb	$0, %al
	callq	printf
# %bb.3:                                #   in Loop: Header=BB39_1 Depth=1
	xorl	%edx, %edx
	leaq	-32(%rbp), %rdi
	leaq	-8(%rbp), %rsi
	callq	_ZN5boost9container12vec_iteratorINS_12interprocess10offset_ptrI8mem_infolmLm0EEELb0EEppEi
	jmp	.LBB39_1
.LBB39_4:
	addq	$32, %rsp
	popq	%rbp
	.cfi_def_cfa %rsp, 8
	retq
.Lfunc_end39:
	.size	_Z8printAllv, .Lfunc_end39-_Z8printAllv
	.cfi_endproc
                                        # -- End function
	.globl	_Z7freeMemi             # -- Begin function _Z7freeMemi
	.p2align	4, 0x90
	.type	_Z7freeMemi,@function
_Z7freeMemi:                            # @_Z7freeMemi
.Lfunc_begin8:
	.cfi_startproc
	.cfi_personality 3, __gxx_personality_v0
	.cfi_lsda 3, .Lexception8
# %bb.0:
	pushq	%rbp
	.cfi_def_cfa_offset 16
	.cfi_offset %rbp, -16
	movq	%rsp, %rbp
	.cfi_def_cfa_register %rbp
	subq	$352, %rsp              # imm = 0x160
	movl	%edi, -4(%rbp)
	movq	mtx, %rsi
	leaq	-24(%rbp), %rdi
	callq	_ZN5boost12interprocess11scoped_lockINS0_18interprocess_mutexEEC2ERS2_
	movabsq	$mem_manager, %rdi
	callq	_ZNK5boost12interprocess10offset_ptrINS_9container6vectorI8mem_infoNS0_9allocatorIS4_NS0_15segment_managerIcNS0_15rbtree_best_fitINS0_12mutex_familyENS1_IvlmLm0EEELm0EEENS0_10iset_indexEEEEEvEElmLm0EEptEv
	leaq	-32(%rbp), %rdi
	movq	%rax, %rsi
	callq	_ZN5boost9container6vectorI8mem_infoNS_12interprocess9allocatorIS2_NS3_15segment_managerIcNS3_15rbtree_best_fitINS3_12mutex_familyENS3_10offset_ptrIvlmLm0EEELm0EEENS3_10iset_indexEEEEEvE5beginEv
.LBB40_1:                               # =>This Inner Loop Header: Depth=1
	movabsq	$mem_manager, %rdi
	callq	_ZNK5boost12interprocess10offset_ptrINS_9container6vectorI8mem_infoNS0_9allocatorIS4_NS0_15segment_managerIcNS0_15rbtree_best_fitINS0_12mutex_familyENS1_IvlmLm0EEELm0EEENS0_10iset_indexEEEEEvEElmLm0EEptEv
	leaq	-40(%rbp), %rdi
	movq	%rax, %rsi
	callq	_ZN5boost9container6vectorI8mem_infoNS_12interprocess9allocatorIS2_NS3_15segment_managerIcNS3_15rbtree_best_fitINS3_12mutex_familyENS3_10offset_ptrIvlmLm0EEELm0EEENS3_10iset_indexEEEEEvE3endEv
	leaq	-32(%rbp), %rdi
	leaq	-40(%rbp), %rsi
	callq	_ZN5boost9containerneERKNS0_12vec_iteratorINS_12interprocess10offset_ptrI8mem_infolmLm0EEELb0EEES8_
	testb	$1, %al
	jne	.LBB40_2
	jmp	.LBB40_22
.LBB40_2:                               #   in Loop: Header=BB40_1 Depth=1
	leaq	-48(%rbp), %rdi
	leaq	-32(%rbp), %rsi
	callq	_ZNK5boost9container12vec_iteratorINS_12interprocess10offset_ptrI8mem_infolmLm0EEELb0EEptEv
	leaq	-48(%rbp), %rdi
	callq	_ZNK5boost12interprocess10offset_ptrI8mem_infolmLm0EEptEv
	movl	4(%rax), %ecx
	cmpl	-4(%rbp), %ecx
	jne	.LBB40_20
# %bb.3:                                #   in Loop: Header=BB40_1 Depth=1
	leaq	-56(%rbp), %rdi
	leaq	-32(%rbp), %rsi
	callq	_ZNK5boost9container12vec_iteratorINS_12interprocess10offset_ptrI8mem_infolmLm0EEELb0EEptEv
	leaq	-56(%rbp), %rdi
	callq	_ZNK5boost12interprocess10offset_ptrI8mem_infolmLm0EEptEv
	cmpl	$1, 8(%rax)
	jle	.LBB40_5
# %bb.4:
	leaq	-64(%rbp), %rdi
	leaq	-32(%rbp), %rsi
	callq	_ZNK5boost9container12vec_iteratorINS_12interprocess10offset_ptrI8mem_infolmLm0EEELb0EEptEv
	leaq	-64(%rbp), %rdi
	callq	_ZNK5boost12interprocess10offset_ptrI8mem_infolmLm0EEptEv
	movl	8(%rax), %ecx
	addl	$-1, %ecx
	movl	%ecx, 8(%rax)
	movl	$1, -68(%rbp)
	jmp	.LBB40_24
.LBB40_5:                               #   in Loop: Header=BB40_1 Depth=1
	leaq	-80(%rbp), %rdi
	leaq	-32(%rbp), %rsi
	callq	_ZNK5boost9container12vec_iteratorINS_12interprocess10offset_ptrI8mem_infolmLm0EEELb0EEptEv
	leaq	-80(%rbp), %rdi
	callq	_ZNK5boost12interprocess10offset_ptrI8mem_infolmLm0EEptEv
	cmpl	$1, 8(%rax)
	jne	.LBB40_18
# %bb.6:
	leaq	-88(%rbp), %rdi
	leaq	-32(%rbp), %rsi
	callq	_ZNK5boost9container12vec_iteratorINS_12interprocess10offset_ptrI8mem_infolmLm0EEELb0EEptEv
	leaq	-88(%rbp), %rdi
	callq	_ZNK5boost12interprocess10offset_ptrI8mem_infolmLm0EEptEv
	movl	8(%rax), %ecx
	addl	$-1, %ecx
	movl	%ecx, 8(%rax)
	movabsq	$mem_manager, %rdi
	callq	_ZNK5boost12interprocess10offset_ptrINS_9container6vectorI8mem_infoNS0_9allocatorIS4_NS0_15segment_managerIcNS0_15rbtree_best_fitINS0_12mutex_familyENS1_IvlmLm0EEELm0EEENS0_10iset_indexEEEEEvEElmLm0EEptEv
	leaq	-96(%rbp), %rdi
	movq	%rax, %rsi
	callq	_ZN5boost9container6vectorI8mem_infoNS_12interprocess9allocatorIS2_NS3_15segment_managerIcNS3_15rbtree_best_fitINS3_12mutex_familyENS3_10offset_ptrIvlmLm0EEELm0EEENS3_10iset_indexEEEEEvE5beginEv
	leaq	-32(%rbp), %rdi
	leaq	-96(%rbp), %rsi
	callq	_ZN5boost9containerneERKNS0_12vec_iteratorINS_12interprocess10offset_ptrI8mem_infolmLm0EEELb0EEES8_
	testb	$1, %al
	jne	.LBB40_7
	jmp	.LBB40_12
.LBB40_7:
	leaq	-112(%rbp), %rdi
	leaq	-32(%rbp), %rsi
	callq	_ZN5boost9container12vec_iteratorINS_12interprocess10offset_ptrI8mem_infolmLm0EEELb0EEC2ERKS6_
	leaq	-104(%rbp), %rdi
	leaq	-112(%rbp), %rsi
	movl	$1, %edx
	callq	_ZN5boost9containermiENS0_12vec_iteratorINS_12interprocess10offset_ptrI8mem_infolmLm0EEELb0EEEl
	leaq	-120(%rbp), %rdi
	leaq	-104(%rbp), %rsi
	callq	_ZNK5boost9container12vec_iteratorINS_12interprocess10offset_ptrI8mem_infolmLm0EEELb0EEptEv
	leaq	-120(%rbp), %rdi
	callq	_ZNK5boost12interprocess10offset_ptrI8mem_infolmLm0EEptEv
	cmpl	$0, 8(%rax)
	jne	.LBB40_11
# %bb.8:
	leaq	-128(%rbp), %rax
	leaq	-104(%rbp), %rcx
	movq	%rax, %rdi
	movq	%rcx, %rsi
	movq	%rax, -256(%rbp)        # 8-byte Spill
	movq	%rcx, -264(%rbp)        # 8-byte Spill
	callq	_ZNK5boost9container12vec_iteratorINS_12interprocess10offset_ptrI8mem_infolmLm0EEELb0EEptEv
	movq	-256(%rbp), %rdi        # 8-byte Reload
	callq	_ZNK5boost12interprocess10offset_ptrI8mem_infolmLm0EEptEv
	movl	4(%rax), %edx
	leaq	-136(%rbp), %rax
	leaq	-32(%rbp), %rsi
	movq	%rax, %rdi
	movl	%edx, -268(%rbp)        # 4-byte Spill
	movq	%rax, -280(%rbp)        # 8-byte Spill
	callq	_ZNK5boost9container12vec_iteratorINS_12interprocess10offset_ptrI8mem_infolmLm0EEELb0EEptEv
	movq	-280(%rbp), %rdi        # 8-byte Reload
	callq	_ZNK5boost12interprocess10offset_ptrI8mem_infolmLm0EEptEv
	movl	-268(%rbp), %edx        # 4-byte Reload
	movl	%edx, 4(%rax)
	movl	$mem_manager, %edi
	callq	_ZNK5boost12interprocess10offset_ptrINS_9container6vectorI8mem_infoNS0_9allocatorIS4_NS0_15segment_managerIcNS0_15rbtree_best_fitINS0_12mutex_familyENS1_IvlmLm0EEELm0EEENS0_10iset_indexEEEEEvEElmLm0EEptEv
	leaq	-144(%rbp), %rcx
	movq	%rcx, %rdi
	movq	-264(%rbp), %rsi        # 8-byte Reload
	movq	%rax, -288(%rbp)        # 8-byte Spill
	movq	%rcx, -296(%rbp)        # 8-byte Spill
	callq	_ZN5boost9container12vec_iteratorINS_12interprocess10offset_ptrI8mem_infolmLm0EEELb1EEC2ERKNS1_IS5_Lb0EEE
.Ltmp57:
	leaq	-152(%rbp), %rdi
	movq	-288(%rbp), %rsi        # 8-byte Reload
	movq	-296(%rbp), %rdx        # 8-byte Reload
	callq	_ZN5boost9container6vectorI8mem_infoNS_12interprocess9allocatorIS2_NS3_15segment_managerIcNS3_15rbtree_best_fitINS3_12mutex_familyENS3_10offset_ptrIvlmLm0EEELm0EEENS3_10iset_indexEEEEEvE5eraseENS0_12vec_iteratorINS8_IS2_lmLm0EEELb1EEE
.Ltmp58:
	jmp	.LBB40_9
.LBB40_9:
	xorl	%edx, %edx
	leaq	-176(%rbp), %rdi
	leaq	-32(%rbp), %rsi
	callq	_ZN5boost9container12vec_iteratorINS_12interprocess10offset_ptrI8mem_infolmLm0EEELb0EEmmEi
	jmp	.LBB40_11
.LBB40_10:
.Ltmp61:
                                        # kill: def $edx killed $edx killed $rdx
	movq	%rax, -160(%rbp)
	movl	%edx, -164(%rbp)
	leaq	-24(%rbp), %rdi
	callq	_ZN5boost12interprocess11scoped_lockINS0_18interprocess_mutexEED2Ev
	jmp	.LBB40_25
.LBB40_11:
	jmp	.LBB40_12
.LBB40_12:
	leaq	-184(%rbp), %rdi
	leaq	-32(%rbp), %rsi
	movl	$1, %edx
	callq	_ZN5boost9containerplERKNS0_12vec_iteratorINS_12interprocess10offset_ptrI8mem_infolmLm0EEELb0EEEl
	movabsq	$mem_manager, %rdi
	callq	_ZNK5boost12interprocess10offset_ptrINS_9container6vectorI8mem_infoNS0_9allocatorIS4_NS0_15segment_managerIcNS0_15rbtree_best_fitINS0_12mutex_familyENS1_IvlmLm0EEELm0EEENS0_10iset_indexEEEEEvEElmLm0EEptEv
	leaq	-192(%rbp), %rdi
	movq	%rax, %rsi
	callq	_ZN5boost9container6vectorI8mem_infoNS_12interprocess9allocatorIS2_NS3_15segment_managerIcNS3_15rbtree_best_fitINS3_12mutex_familyENS3_10offset_ptrIvlmLm0EEELm0EEENS3_10iset_indexEEEEEvE3endEv
	leaq	-184(%rbp), %rdi
	leaq	-192(%rbp), %rsi
	callq	_ZN5boost9containerneERKNS0_12vec_iteratorINS_12interprocess10offset_ptrI8mem_infolmLm0EEELb0EEES8_
	testb	$1, %al
	jne	.LBB40_13
	jmp	.LBB40_17
.LBB40_13:
	leaq	-200(%rbp), %rdi
	leaq	-32(%rbp), %rsi
	movl	$1, %edx
	callq	_ZN5boost9containerplERKNS0_12vec_iteratorINS_12interprocess10offset_ptrI8mem_infolmLm0EEELb0EEEl
	leaq	-208(%rbp), %rdi
	leaq	-200(%rbp), %rsi
	callq	_ZNK5boost9container12vec_iteratorINS_12interprocess10offset_ptrI8mem_infolmLm0EEELb0EEptEv
	leaq	-208(%rbp), %rdi
	callq	_ZNK5boost12interprocess10offset_ptrI8mem_infolmLm0EEptEv
	cmpl	$0, 8(%rax)
	jne	.LBB40_16
# %bb.14:
	leaq	-216(%rbp), %rax
	leaq	-200(%rbp), %rcx
	movq	%rax, %rdi
	movq	%rcx, %rsi
	movq	%rax, -304(%rbp)        # 8-byte Spill
	movq	%rcx, -312(%rbp)        # 8-byte Spill
	callq	_ZNK5boost9container12vec_iteratorINS_12interprocess10offset_ptrI8mem_infolmLm0EEELb0EEptEv
	movq	-304(%rbp), %rdi        # 8-byte Reload
	callq	_ZNK5boost12interprocess10offset_ptrI8mem_infolmLm0EEptEv
	movl	(%rax), %edx
	leaq	-224(%rbp), %rax
	leaq	-32(%rbp), %rsi
	movq	%rax, %rdi
	movl	%edx, -316(%rbp)        # 4-byte Spill
	movq	%rax, -328(%rbp)        # 8-byte Spill
	callq	_ZNK5boost9container12vec_iteratorINS_12interprocess10offset_ptrI8mem_infolmLm0EEELb0EEptEv
	movq	-328(%rbp), %rdi        # 8-byte Reload
	callq	_ZNK5boost12interprocess10offset_ptrI8mem_infolmLm0EEptEv
	movl	-316(%rbp), %edx        # 4-byte Reload
	movl	%edx, (%rax)
	movl	$mem_manager, %edi
	callq	_ZNK5boost12interprocess10offset_ptrINS_9container6vectorI8mem_infoNS0_9allocatorIS4_NS0_15segment_managerIcNS0_15rbtree_best_fitINS0_12mutex_familyENS1_IvlmLm0EEELm0EEENS0_10iset_indexEEEEEvEElmLm0EEptEv
	leaq	-232(%rbp), %rcx
	movq	%rcx, %rdi
	movq	-312(%rbp), %rsi        # 8-byte Reload
	movq	%rax, -336(%rbp)        # 8-byte Spill
	movq	%rcx, -344(%rbp)        # 8-byte Spill
	callq	_ZN5boost9container12vec_iteratorINS_12interprocess10offset_ptrI8mem_infolmLm0EEELb1EEC2ERKNS1_IS5_Lb0EEE
.Ltmp59:
	leaq	-240(%rbp), %rdi
	movq	-336(%rbp), %rsi        # 8-byte Reload
	movq	-344(%rbp), %rdx        # 8-byte Reload
	callq	_ZN5boost9container6vectorI8mem_infoNS_12interprocess9allocatorIS2_NS3_15segment_managerIcNS3_15rbtree_best_fitINS3_12mutex_familyENS3_10offset_ptrIvlmLm0EEELm0EEENS3_10iset_indexEEEEEvE5eraseENS0_12vec_iteratorINS8_IS2_lmLm0EEELb1EEE
.Ltmp60:
	jmp	.LBB40_15
.LBB40_15:
	jmp	.LBB40_16
.LBB40_16:
	jmp	.LBB40_17
.LBB40_17:
	movl	$1, -68(%rbp)
	jmp	.LBB40_24
.LBB40_18:                              #   in Loop: Header=BB40_1 Depth=1
	jmp	.LBB40_19
.LBB40_19:                              #   in Loop: Header=BB40_1 Depth=1
	jmp	.LBB40_20
.LBB40_20:                              #   in Loop: Header=BB40_1 Depth=1
	jmp	.LBB40_21
.LBB40_21:                              #   in Loop: Header=BB40_1 Depth=1
	xorl	%edx, %edx
	leaq	-248(%rbp), %rdi
	leaq	-32(%rbp), %rsi
	callq	_ZN5boost9container12vec_iteratorINS_12interprocess10offset_ptrI8mem_infolmLm0EEELb0EEppEi
	jmp	.LBB40_1
.LBB40_22:
.Ltmp55:
	movl	$.L.str.10, %edi
	xorl	%eax, %eax
                                        # kill: def $al killed $al killed $eax
	callq	printf
.Ltmp56:
	jmp	.LBB40_23
.LBB40_23:
	xorl	%edi, %edi
	callq	exit
.LBB40_24:
	leaq	-24(%rbp), %rdi
	callq	_ZN5boost12interprocess11scoped_lockINS0_18interprocess_mutexEED2Ev
	addq	$352, %rsp              # imm = 0x160
	popq	%rbp
	.cfi_def_cfa %rsp, 8
	retq
.LBB40_25:
	.cfi_def_cfa %rbp, 16
	movq	-160(%rbp), %rdi
	callq	_Unwind_Resume
.Lfunc_end40:
	.size	_Z7freeMemi, .Lfunc_end40-_Z7freeMemi
	.cfi_endproc
	.section	.gcc_except_table,"a",@progbits
	.p2align	2
GCC_except_table40:
.Lexception8:
	.byte	255                     # @LPStart Encoding = omit
	.byte	255                     # @TType Encoding = omit
	.byte	1                       # Call site Encoding = uleb128
	.uleb128 .Lcst_end8-.Lcst_begin8
.Lcst_begin8:
	.uleb128 .Lfunc_begin8-.Lfunc_begin8 # >> Call Site 1 <<
	.uleb128 .Ltmp57-.Lfunc_begin8  #   Call between .Lfunc_begin8 and .Ltmp57
	.byte	0                       #     has no landing pad
	.byte	0                       #   On action: cleanup
	.uleb128 .Ltmp57-.Lfunc_begin8  # >> Call Site 2 <<
	.uleb128 .Ltmp56-.Ltmp57        #   Call between .Ltmp57 and .Ltmp56
	.uleb128 .Ltmp61-.Lfunc_begin8  #     jumps to .Ltmp61
	.byte	0                       #   On action: cleanup
	.uleb128 .Ltmp56-.Lfunc_begin8  # >> Call Site 3 <<
	.uleb128 .Lfunc_end40-.Ltmp56   #   Call between .Ltmp56 and .Lfunc_end40
	.byte	0                       #     has no landing pad
	.byte	0                       #   On action: cleanup
.Lcst_end8:
	.p2align	2
                                        # -- End function
	.section	.text._ZN5boost9containermiENS0_12vec_iteratorINS_12interprocess10offset_ptrI8mem_infolmLm0EEELb0EEEl,"axG",@progbits,_ZN5boost9containermiENS0_12vec_iteratorINS_12interprocess10offset_ptrI8mem_infolmLm0EEELb0EEEl,comdat
	.weak	_ZN5boost9containermiENS0_12vec_iteratorINS_12interprocess10offset_ptrI8mem_infolmLm0EEELb0EEEl # -- Begin function _ZN5boost9containermiENS0_12vec_iteratorINS_12interprocess10offset_ptrI8mem_infolmLm0EEELb0EEEl
	.p2align	4, 0x90
	.type	_ZN5boost9containermiENS0_12vec_iteratorINS_12interprocess10offset_ptrI8mem_infolmLm0EEELb0EEEl,@function
_ZN5boost9containermiENS0_12vec_iteratorINS_12interprocess10offset_ptrI8mem_infolmLm0EEELb0EEEl: # @_ZN5boost9containermiENS0_12vec_iteratorINS_12interprocess10offset_ptrI8mem_infolmLm0EEELb0EEEl
	.cfi_startproc
# %bb.0:
	pushq	%rbp
	.cfi_def_cfa_offset 16
	.cfi_offset %rbp, -16
	movq	%rsp, %rbp
	.cfi_def_cfa_register %rbp
	subq	$64, %rsp
	movq	%rdi, %rax
	movq	%rdi, %rcx
	movq	%rcx, -8(%rbp)
	movq	%rdx, -16(%rbp)
	movq	%rdi, -24(%rbp)         # 8-byte Spill
	movq	%rsi, %rdi
	movq	%rsi, -32(%rbp)         # 8-byte Spill
	movq	%rax, -40(%rbp)         # 8-byte Spill
	callq	_ZNK5boost12interprocess10offset_ptrI8mem_infolmLm0EEcvbEv
	testb	$1, %al
	movb	$1, %al
	movb	%al, -41(%rbp)          # 1-byte Spill
	jne	.LBB41_2
# %bb.1:
	cmpq	$0, -16(%rbp)
	setne	%al
	xorb	$-1, %al
	movb	%al, -41(%rbp)          # 1-byte Spill
.LBB41_2:
	movb	-41(%rbp), %al          # 1-byte Reload
	testb	$1, %al
	jne	.LBB41_3
	jmp	.LBB41_4
.LBB41_3:
	jmp	.LBB41_5
.LBB41_4:
	movabsq	$.L.str.102, %rdi
	movabsq	$.L.str.86, %rsi
	movl	$177, %edx
	movabsq	$.L__PRETTY_FUNCTION__._ZN5boost9containermiENS0_12vec_iteratorINS_12interprocess10offset_ptrI8mem_infolmLm0EEELb0EEEl, %rcx
	callq	__assert_fail
.LBB41_5:
	movq	-16(%rbp), %rsi
	movq	-32(%rbp), %rdi         # 8-byte Reload
	callq	_ZN5boost12interprocess10offset_ptrI8mem_infolmLm0EEmIEl
	movq	-24(%rbp), %rdi         # 8-byte Reload
	movq	-32(%rbp), %rsi         # 8-byte Reload
	movq	%rax, -56(%rbp)         # 8-byte Spill
	callq	_ZN5boost9container12vec_iteratorINS_12interprocess10offset_ptrI8mem_infolmLm0EEELb0EEC2ERKS6_
	movq	-40(%rbp), %rax         # 8-byte Reload
	addq	$64, %rsp
	popq	%rbp
	.cfi_def_cfa %rsp, 8
	retq
.Lfunc_end41:
	.size	_ZN5boost9containermiENS0_12vec_iteratorINS_12interprocess10offset_ptrI8mem_infolmLm0EEELb0EEEl, .Lfunc_end41-_ZN5boost9containermiENS0_12vec_iteratorINS_12interprocess10offset_ptrI8mem_infolmLm0EEELb0EEEl
	.cfi_endproc
                                        # -- End function
	.section	.text._ZN5boost9container12vec_iteratorINS_12interprocess10offset_ptrI8mem_infolmLm0EEELb0EEC2ERKS6_,"axG",@progbits,_ZN5boost9container12vec_iteratorINS_12interprocess10offset_ptrI8mem_infolmLm0EEELb0EEC2ERKS6_,comdat
	.weak	_ZN5boost9container12vec_iteratorINS_12interprocess10offset_ptrI8mem_infolmLm0EEELb0EEC2ERKS6_ # -- Begin function _ZN5boost9container12vec_iteratorINS_12interprocess10offset_ptrI8mem_infolmLm0EEELb0EEC2ERKS6_
	.p2align	4, 0x90
	.type	_ZN5boost9container12vec_iteratorINS_12interprocess10offset_ptrI8mem_infolmLm0EEELb0EEC2ERKS6_,@function
_ZN5boost9container12vec_iteratorINS_12interprocess10offset_ptrI8mem_infolmLm0EEELb0EEC2ERKS6_: # @_ZN5boost9container12vec_iteratorINS_12interprocess10offset_ptrI8mem_infolmLm0EEELb0EEC2ERKS6_
	.cfi_startproc
# %bb.0:
	pushq	%rbp
	.cfi_def_cfa_offset 16
	.cfi_offset %rbp, -16
	movq	%rsp, %rbp
	.cfi_def_cfa_register %rbp
	subq	$32, %rsp
	movq	%rdi, -8(%rbp)
	movq	%rsi, -16(%rbp)
	movq	-8(%rbp), %rdi
	movq	-16(%rbp), %rax
	movq	%rdi, -24(%rbp)         # 8-byte Spill
	movq	%rax, %rdi
	callq	_ZNK5boost9container12vec_iteratorINS_12interprocess10offset_ptrI8mem_infolmLm0EEELb0EE7get_ptrEv
	movq	-24(%rbp), %rdi         # 8-byte Reload
	movq	%rax, %rsi
	callq	_ZN5boost12interprocess10offset_ptrI8mem_infolmLm0EEC2ERKS3_
	addq	$32, %rsp
	popq	%rbp
	.cfi_def_cfa %rsp, 8
	retq
.Lfunc_end42:
	.size	_ZN5boost9container12vec_iteratorINS_12interprocess10offset_ptrI8mem_infolmLm0EEELb0EEC2ERKS6_, .Lfunc_end42-_ZN5boost9container12vec_iteratorINS_12interprocess10offset_ptrI8mem_infolmLm0EEELb0EEC2ERKS6_
	.cfi_endproc
                                        # -- End function
	.section	.text._ZN5boost9container6vectorI8mem_infoNS_12interprocess9allocatorIS2_NS3_15segment_managerIcNS3_15rbtree_best_fitINS3_12mutex_familyENS3_10offset_ptrIvlmLm0EEELm0EEENS3_10iset_indexEEEEEvE5eraseENS0_12vec_iteratorINS8_IS2_lmLm0EEELb1EEE,"axG",@progbits,_ZN5boost9container6vectorI8mem_infoNS_12interprocess9allocatorIS2_NS3_15segment_managerIcNS3_15rbtree_best_fitINS3_12mutex_familyENS3_10offset_ptrIvlmLm0EEELm0EEENS3_10iset_indexEEEEEvE5eraseENS0_12vec_iteratorINS8_IS2_lmLm0EEELb1EEE,comdat
	.weak	_ZN5boost9container6vectorI8mem_infoNS_12interprocess9allocatorIS2_NS3_15segment_managerIcNS3_15rbtree_best_fitINS3_12mutex_familyENS3_10offset_ptrIvlmLm0EEELm0EEENS3_10iset_indexEEEEEvE5eraseENS0_12vec_iteratorINS8_IS2_lmLm0EEELb1EEE # -- Begin function _ZN5boost9container6vectorI8mem_infoNS_12interprocess9allocatorIS2_NS3_15segment_managerIcNS3_15rbtree_best_fitINS3_12mutex_familyENS3_10offset_ptrIvlmLm0EEELm0EEENS3_10iset_indexEEEEEvE5eraseENS0_12vec_iteratorINS8_IS2_lmLm0EEELb1EEE
	.p2align	4, 0x90
	.type	_ZN5boost9container6vectorI8mem_infoNS_12interprocess9allocatorIS2_NS3_15segment_managerIcNS3_15rbtree_best_fitINS3_12mutex_familyENS3_10offset_ptrIvlmLm0EEELm0EEENS3_10iset_indexEEEEEvE5eraseENS0_12vec_iteratorINS8_IS2_lmLm0EEELb1EEE,@function
_ZN5boost9container6vectorI8mem_infoNS_12interprocess9allocatorIS2_NS3_15segment_managerIcNS3_15rbtree_best_fitINS3_12mutex_familyENS3_10offset_ptrIvlmLm0EEELm0EEENS3_10iset_indexEEEEEvE5eraseENS0_12vec_iteratorINS8_IS2_lmLm0EEELb1EEE: # @_ZN5boost9container6vectorI8mem_infoNS_12interprocess9allocatorIS2_NS3_15segment_managerIcNS3_15rbtree_best_fitINS3_12mutex_familyENS3_10offset_ptrIvlmLm0EEELm0EEENS3_10iset_indexEEEEEvE5eraseENS0_12vec_iteratorINS8_IS2_lmLm0EEELb1EEE
	.cfi_startproc
# %bb.0:
	pushq	%rbp
	.cfi_def_cfa_offset 16
	.cfi_offset %rbp, -16
	movq	%rsp, %rbp
	.cfi_def_cfa_register %rbp
	subq	$96, %rsp
	movq	%rdi, %rax
	movq	%rdi, %rcx
	movq	%rcx, -8(%rbp)
	movq	%rsi, -16(%rbp)
	movq	-16(%rbp), %rcx
	leaq	-24(%rbp), %rsi
	movq	%rdi, -72(%rbp)         # 8-byte Spill
	movq	%rsi, %rdi
	movq	%rdx, %rsi
	movq	%rdx, -80(%rbp)         # 8-byte Spill
	movq	%rax, -88(%rbp)         # 8-byte Spill
	movq	%rcx, -96(%rbp)         # 8-byte Spill
	callq	_ZN5boost9container12vec_iteratorINS_12interprocess10offset_ptrI8mem_infolmLm0EEELb1EEC2ERKS6_
	movq	-96(%rbp), %rdi         # 8-byte Reload
	leaq	-24(%rbp), %rsi
	callq	_ZNK5boost9container6vectorI8mem_infoNS_12interprocess9allocatorIS2_NS3_15segment_managerIcNS3_15rbtree_best_fitINS3_12mutex_familyENS3_10offset_ptrIvlmLm0EEELm0EEENS3_10iset_indexEEEEEvE13priv_in_rangeENS0_12vec_iteratorINS8_IS2_lmLm0EEELb1EEE
	testb	$1, %al
	jne	.LBB43_1
	jmp	.LBB43_2
.LBB43_1:
	jmp	.LBB43_3
.LBB43_2:
	movabsq	$.L.str.103, %rdi
	movabsq	$.L.str.86, %rsi
	movl	$2054, %edx             # imm = 0x806
	movabsq	$.L__PRETTY_FUNCTION__._ZN5boost9container6vectorI8mem_infoNS_12interprocess9allocatorIS2_NS3_15segment_managerIcNS3_15rbtree_best_fitINS3_12mutex_familyENS3_10offset_ptrIvlmLm0EEELm0EEENS3_10iset_indexEEEEEvE5eraseENS0_12vec_iteratorINS8_IS2_lmLm0EEELb1EEE, %rcx
	callq	__assert_fail
.LBB43_3:
	movq	-80(%rbp), %rdi         # 8-byte Reload
	callq	_ZN5boost9container23vector_iterator_get_ptrINS_12interprocess10offset_ptrI8mem_infolmLm0EEELb1EEERKT_RKNS0_12vec_iteratorIS6_XT0_EEE
	leaq	-32(%rbp), %rdi
	movq	%rax, %rsi
	callq	_ZN5boost12interprocess10offset_ptrI8mem_infolmLm0EEC2ERKS3_
	leaq	-32(%rbp), %rdi
	callq	_ZN5boost7movelib14to_raw_pointerINS_12interprocess10offset_ptrI8mem_infolmLm0EEEEEPNS0_15pointer_elementIT_E4typeERKS7_
	movq	%rax, -40(%rbp)
	movq	-96(%rbp), %rdi         # 8-byte Reload
	callq	_ZNK5boost9container6vectorI8mem_infoNS_12interprocess9allocatorIS2_NS3_15segment_managerIcNS3_15rbtree_best_fitINS3_12mutex_familyENS3_10offset_ptrIvlmLm0EEELm0EEENS3_10iset_indexEEEEEvE14priv_raw_beginEv
	movq	%rax, -48(%rbp)
	movq	-40(%rbp), %rax
	addq	$12, %rax
	movq	-48(%rbp), %rcx
	movq	-96(%rbp), %rdx         # 8-byte Reload
	imulq	$12, 16(%rdx), %rsi
	addq	%rsi, %rcx
	movq	-40(%rbp), %rdx
	movq	%rax, %rdi
	movq	%rcx, %rsi
	callq	_ZN5boost9container4moveIP8mem_infoS3_EENS0_3dtl37enable_if_memtransfer_copy_assignableIT_T0_S7_E4typeES6_S6_S7_
	movq	%rax, -56(%rbp)
	movq	-40(%rbp), %rax
	cmpq	-56(%rbp), %rax
	setne	%r8b
	movzbl	%r8b, %r9d
	andl	$1, %r9d
	movq	-96(%rbp), %rdi         # 8-byte Reload
	movl	%r9d, %esi
	callq	_ZN5boost9container6vectorI8mem_infoNS_12interprocess9allocatorIS2_NS3_15segment_managerIcNS3_15rbtree_best_fitINS3_12mutex_familyENS3_10offset_ptrIvlmLm0EEELm0EEENS3_10iset_indexEEEEEvE17priv_destroy_lastEb
	leaq	-64(%rbp), %rdi
	leaq	-32(%rbp), %rsi
	callq	_ZN5boost12interprocess10offset_ptrI8mem_infolmLm0EEC2ERKS3_
	movq	-72(%rbp), %rdi         # 8-byte Reload
	leaq	-64(%rbp), %rsi
	callq	_ZN5boost9container12vec_iteratorINS_12interprocess10offset_ptrI8mem_infolmLm0EEELb0EEC2ES5_
	movq	-88(%rbp), %rax         # 8-byte Reload
	addq	$96, %rsp
	popq	%rbp
	.cfi_def_cfa %rsp, 8
	retq
.Lfunc_end43:
	.size	_ZN5boost9container6vectorI8mem_infoNS_12interprocess9allocatorIS2_NS3_15segment_managerIcNS3_15rbtree_best_fitINS3_12mutex_familyENS3_10offset_ptrIvlmLm0EEELm0EEENS3_10iset_indexEEEEEvE5eraseENS0_12vec_iteratorINS8_IS2_lmLm0EEELb1EEE, .Lfunc_end43-_ZN5boost9container6vectorI8mem_infoNS_12interprocess9allocatorIS2_NS3_15segment_managerIcNS3_15rbtree_best_fitINS3_12mutex_familyENS3_10offset_ptrIvlmLm0EEELm0EEENS3_10iset_indexEEEEEvE5eraseENS0_12vec_iteratorINS8_IS2_lmLm0EEELb1EEE
	.cfi_endproc
                                        # -- End function
	.section	.text._ZN5boost9container12vec_iteratorINS_12interprocess10offset_ptrI8mem_infolmLm0EEELb0EEmmEi,"axG",@progbits,_ZN5boost9container12vec_iteratorINS_12interprocess10offset_ptrI8mem_infolmLm0EEELb0EEmmEi,comdat
	.weak	_ZN5boost9container12vec_iteratorINS_12interprocess10offset_ptrI8mem_infolmLm0EEELb0EEmmEi # -- Begin function _ZN5boost9container12vec_iteratorINS_12interprocess10offset_ptrI8mem_infolmLm0EEELb0EEmmEi
	.p2align	4, 0x90
	.type	_ZN5boost9container12vec_iteratorINS_12interprocess10offset_ptrI8mem_infolmLm0EEELb0EEmmEi,@function
_ZN5boost9container12vec_iteratorINS_12interprocess10offset_ptrI8mem_infolmLm0EEELb0EEmmEi: # @_ZN5boost9container12vec_iteratorINS_12interprocess10offset_ptrI8mem_infolmLm0EEELb0EEmmEi
	.cfi_startproc
# %bb.0:
	pushq	%rbp
	.cfi_def_cfa_offset 16
	.cfi_offset %rbp, -16
	movq	%rsp, %rbp
	.cfi_def_cfa_register %rbp
	subq	$64, %rsp
	movq	%rdi, %rax
	movq	%rdi, %rcx
	movq	%rcx, -8(%rbp)
	movq	%rsi, -16(%rbp)
	movl	%edx, -20(%rbp)
	movq	-16(%rbp), %rcx
	movq	%rdi, -40(%rbp)         # 8-byte Spill
	movq	%rcx, %rdi
	movq	%rax, -48(%rbp)         # 8-byte Spill
	movq	%rcx, -56(%rbp)         # 8-byte Spill
	callq	_ZNK5boost12interprocess10offset_ptrI8mem_infolmLm0EEntEv
	xorb	$-1, %al
	testb	$1, %al
	jne	.LBB44_1
	jmp	.LBB44_2
.LBB44_1:
	jmp	.LBB44_3
.LBB44_2:
	movabsq	$.L.str.98, %rdi
	movabsq	$.L.str.86, %rsi
	movl	$161, %edx
	movabsq	$.L__PRETTY_FUNCTION__._ZN5boost9container12vec_iteratorINS_12interprocess10offset_ptrI8mem_infolmLm0EEELb0EEmmEi, %rcx
	callq	__assert_fail
.LBB44_3:
	xorl	%edx, %edx
	leaq	-32(%rbp), %rdi
	movq	-56(%rbp), %rsi         # 8-byte Reload
	callq	_ZN5boost12interprocess10offset_ptrI8mem_infolmLm0EEmmEi
	movq	-40(%rbp), %rdi         # 8-byte Reload
	leaq	-32(%rbp), %rsi
	callq	_ZN5boost9container12vec_iteratorINS_12interprocess10offset_ptrI8mem_infolmLm0EEELb0EEC2ES5_
	movq	-48(%rbp), %rax         # 8-byte Reload
	addq	$64, %rsp
	popq	%rbp
	.cfi_def_cfa %rsp, 8
	retq
.Lfunc_end44:
	.size	_ZN5boost9container12vec_iteratorINS_12interprocess10offset_ptrI8mem_infolmLm0EEELb0EEmmEi, .Lfunc_end44-_ZN5boost9container12vec_iteratorINS_12interprocess10offset_ptrI8mem_infolmLm0EEELb0EEmmEi
	.cfi_endproc
                                        # -- End function
	.text
	.globl	_Z10get_offsetPv        # -- Begin function _Z10get_offsetPv
	.p2align	4, 0x90
	.type	_Z10get_offsetPv,@function
_Z10get_offsetPv:                       # @_Z10get_offsetPv
	.cfi_startproc
# %bb.0:
	pushq	%rbp
	.cfi_def_cfa_offset 16
	.cfi_offset %rbp, -16
	movq	%rsp, %rbp
	.cfi_def_cfa_register %rbp
	movq	%rdi, -16(%rbp)
	movl	$0, -20(%rbp)
.LBB45_1:                               # =>This Inner Loop Header: Depth=1
	cmpl	$10, -20(%rbp)
	jge	.LBB45_6
# %bb.2:                                #   in Loop: Header=BB45_1 Depth=1
	movq	-16(%rbp), %rax
	movslq	-20(%rbp), %rcx
	imulq	$24, %rcx, %rcx
	movabsq	$myform, %rdx
	addq	%rcx, %rdx
	cmpq	8(%rdx), %rax
	jne	.LBB45_4
# %bb.3:
	movslq	-20(%rbp), %rax
	imulq	$24, %rax, %rax
	movabsq	$myform, %rcx
	addq	%rax, %rcx
	movl	(%rcx), %edx
	movl	%edx, -4(%rbp)
	jmp	.LBB45_7
.LBB45_4:                               #   in Loop: Header=BB45_1 Depth=1
	jmp	.LBB45_5
.LBB45_5:                               #   in Loop: Header=BB45_1 Depth=1
	movl	-20(%rbp), %eax
	addl	$1, %eax
	movl	%eax, -20(%rbp)
	jmp	.LBB45_1
.LBB45_6:
	movl	$-1, -4(%rbp)
.LBB45_7:
	movl	-4(%rbp), %eax
	popq	%rbp
	.cfi_def_cfa %rsp, 8
	retq
.Lfunc_end45:
	.size	_Z10get_offsetPv, .Lfunc_end45-_Z10get_offsetPv
	.cfi_endproc
                                        # -- End function
	.globl	_Z10get_lengthPv        # -- Begin function _Z10get_lengthPv
	.p2align	4, 0x90
	.type	_Z10get_lengthPv,@function
_Z10get_lengthPv:                       # @_Z10get_lengthPv
	.cfi_startproc
# %bb.0:
	pushq	%rbp
	.cfi_def_cfa_offset 16
	.cfi_offset %rbp, -16
	movq	%rsp, %rbp
	.cfi_def_cfa_register %rbp
	movq	%rdi, -16(%rbp)
	movl	$0, -20(%rbp)
.LBB46_1:                               # =>This Inner Loop Header: Depth=1
	cmpl	$10, -20(%rbp)
	jge	.LBB46_6
# %bb.2:                                #   in Loop: Header=BB46_1 Depth=1
	movq	-16(%rbp), %rax
	movslq	-20(%rbp), %rcx
	imulq	$24, %rcx, %rcx
	movabsq	$myform, %rdx
	addq	%rcx, %rdx
	cmpq	8(%rdx), %rax
	jne	.LBB46_4
# %bb.3:
	movslq	-20(%rbp), %rax
	imulq	$24, %rax, %rax
	movabsq	$myform, %rcx
	addq	%rax, %rcx
	movl	20(%rcx), %edx
	movl	%edx, -4(%rbp)
	jmp	.LBB46_7
.LBB46_4:                               #   in Loop: Header=BB46_1 Depth=1
	jmp	.LBB46_5
.LBB46_5:                               #   in Loop: Header=BB46_1 Depth=1
	movl	-20(%rbp), %eax
	addl	$1, %eax
	movl	%eax, -20(%rbp)
	jmp	.LBB46_1
.LBB46_6:
	movl	$-1, -4(%rbp)
.LBB46_7:
	movl	-4(%rbp), %eax
	popq	%rbp
	.cfi_def_cfa %rsp, 8
	retq
.Lfunc_end46:
	.size	_Z10get_lengthPv, .Lfunc_end46-_Z10get_lengthPv
	.cfi_endproc
                                        # -- End function
	.globl	_Z10set_offsetPvii      # -- Begin function _Z10set_offsetPvii
	.p2align	4, 0x90
	.type	_Z10set_offsetPvii,@function
_Z10set_offsetPvii:                     # @_Z10set_offsetPvii
	.cfi_startproc
# %bb.0:
	pushq	%rbp
	.cfi_def_cfa_offset 16
	.cfi_offset %rbp, -16
	movq	%rsp, %rbp
	.cfi_def_cfa_register %rbp
	subq	$32, %rsp
	movq	%rdi, -8(%rbp)
	movl	%esi, -12(%rbp)
	movl	%edx, -16(%rbp)
	movl	$-1, -20(%rbp)
	movl	$0, -24(%rbp)
.LBB47_1:                               # =>This Inner Loop Header: Depth=1
	cmpl	$10, -24(%rbp)
	jge	.LBB47_8
# %bb.2:                                #   in Loop: Header=BB47_1 Depth=1
	movslq	-24(%rbp), %rax
	imulq	$24, %rax, %rax
	movabsq	$myform, %rcx
	addq	%rax, %rcx
	cmpq	$0, 8(%rcx)
	jne	.LBB47_4
# %bb.3:                                #   in Loop: Header=BB47_1 Depth=1
	movl	-24(%rbp), %eax
	movl	%eax, -20(%rbp)
.LBB47_4:                               #   in Loop: Header=BB47_1 Depth=1
	movslq	-24(%rbp), %rax
	imulq	$24, %rax, %rax
	movabsq	$myform, %rcx
	addq	%rax, %rcx
	movq	8(%rcx), %rax
	cmpq	-8(%rbp), %rax
	jne	.LBB47_6
# %bb.5:
	movl	-12(%rbp), %eax
	movslq	-24(%rbp), %rcx
	imulq	$24, %rcx, %rcx
	movabsq	$myform, %rdx
	movq	%rdx, %rsi
	addq	%rcx, %rsi
	movl	%eax, (%rsi)
	movl	-16(%rbp), %eax
	movslq	-24(%rbp), %rcx
	imulq	$24, %rcx, %rcx
	addq	%rcx, %rdx
	movl	%eax, 16(%rdx)
	jmp	.LBB47_11
.LBB47_6:                               #   in Loop: Header=BB47_1 Depth=1
	jmp	.LBB47_7
.LBB47_7:                               #   in Loop: Header=BB47_1 Depth=1
	movl	-24(%rbp), %eax
	addl	$1, %eax
	movl	%eax, -24(%rbp)
	jmp	.LBB47_1
.LBB47_8:
	cmpl	$-1, -20(%rbp)
	jne	.LBB47_10
# %bb.9:
	movabsq	$.L.str.11, %rdi
	movb	$0, %al
	callq	printf
	xorl	%edi, %edi
	movl	%eax, -28(%rbp)         # 4-byte Spill
	callq	exit
.LBB47_10:
	movq	-8(%rbp), %rax
	movslq	-20(%rbp), %rcx
	imulq	$24, %rcx, %rcx
	movabsq	$myform, %rdx
	movq	%rdx, %rsi
	addq	%rcx, %rsi
	movq	%rax, 8(%rsi)
	movl	-12(%rbp), %edi
	movslq	-20(%rbp), %rax
	imulq	$24, %rax, %rax
	movq	%rdx, %rcx
	addq	%rax, %rcx
	movl	%edi, (%rcx)
	movl	-16(%rbp), %edi
	movslq	-20(%rbp), %rax
	imulq	$24, %rax, %rax
	movq	%rdx, %rcx
	addq	%rax, %rcx
	movl	%edi, 20(%rcx)
	movl	-16(%rbp), %edi
	movslq	-20(%rbp), %rax
	imulq	$24, %rax, %rax
	addq	%rax, %rdx
	movl	%edi, 16(%rdx)
.LBB47_11:
	addq	$32, %rsp
	popq	%rbp
	.cfi_def_cfa %rsp, 8
	retq
.Lfunc_end47:
	.size	_Z10set_offsetPvii, .Lfunc_end47-_Z10set_offsetPvii
	.cfi_endproc
                                        # -- End function
	.globl	_Z6divideiii            # -- Begin function _Z6divideiii
	.p2align	4, 0x90
	.type	_Z6divideiii,@function
_Z6divideiii:                           # @_Z6divideiii
	.cfi_startproc
# %bb.0:
	pushq	%rbp
	.cfi_def_cfa_offset 16
	.cfi_offset %rbp, -16
	movq	%rsp, %rbp
	.cfi_def_cfa_register %rbp
	subq	$256, %rsp              # imm = 0x100
	movl	%edi, -4(%rbp)
	movl	%esi, -8(%rbp)
	movl	%edx, -12(%rbp)
	movabsq	$mem_manager, %rdi
	callq	_ZNK5boost12interprocess10offset_ptrINS_9container6vectorI8mem_infoNS0_9allocatorIS4_NS0_15segment_managerIcNS0_15rbtree_best_fitINS0_12mutex_familyENS1_IvlmLm0EEELm0EEENS0_10iset_indexEEEEEvEElmLm0EEptEv
	leaq	-24(%rbp), %rdi
	movq	%rax, %rsi
	callq	_ZN5boost9container6vectorI8mem_infoNS_12interprocess9allocatorIS2_NS3_15segment_managerIcNS3_15rbtree_best_fitINS3_12mutex_familyENS3_10offset_ptrIvlmLm0EEELm0EEENS3_10iset_indexEEEEEvE5beginEv
.LBB48_1:                               # =>This Inner Loop Header: Depth=1
	movabsq	$mem_manager, %rdi
	callq	_ZNK5boost12interprocess10offset_ptrINS_9container6vectorI8mem_infoNS0_9allocatorIS4_NS0_15segment_managerIcNS0_15rbtree_best_fitINS0_12mutex_familyENS1_IvlmLm0EEELm0EEENS0_10iset_indexEEEEEvEElmLm0EEptEv
	leaq	-32(%rbp), %rdi
	movq	%rax, %rsi
	callq	_ZN5boost9container6vectorI8mem_infoNS_12interprocess9allocatorIS2_NS3_15segment_managerIcNS3_15rbtree_best_fitINS3_12mutex_familyENS3_10offset_ptrIvlmLm0EEELm0EEENS3_10iset_indexEEEEEvE3endEv
	leaq	-24(%rbp), %rdi
	leaq	-32(%rbp), %rsi
	callq	_ZN5boost9containerneERKNS0_12vec_iteratorINS_12interprocess10offset_ptrI8mem_infolmLm0EEELb0EEES8_
	testb	$1, %al
	jne	.LBB48_2
	jmp	.LBB48_11
.LBB48_2:                               #   in Loop: Header=BB48_1 Depth=1
	leaq	-40(%rbp), %rdi
	leaq	-24(%rbp), %rsi
	callq	_ZNK5boost9container12vec_iteratorINS_12interprocess10offset_ptrI8mem_infolmLm0EEELb0EEptEv
	leaq	-40(%rbp), %rdi
	callq	_ZNK5boost12interprocess10offset_ptrI8mem_infolmLm0EEptEv
	movl	4(%rax), %ecx
	cmpl	-4(%rbp), %ecx
	jne	.LBB48_9
# %bb.3:                                #   in Loop: Header=BB48_1 Depth=1
	leaq	-56(%rbp), %rdi
	leaq	-24(%rbp), %rsi
	callq	_ZNK5boost9container12vec_iteratorINS_12interprocess10offset_ptrI8mem_infolmLm0EEELb0EEptEv
	leaq	-56(%rbp), %rdi
	callq	_ZNK5boost12interprocess10offset_ptrI8mem_infolmLm0EEptEv
	movl	4(%rax), %ecx
	movl	%ecx, -44(%rbp)
	leaq	-72(%rbp), %rdi
	leaq	-24(%rbp), %rsi
	callq	_ZNK5boost9container12vec_iteratorINS_12interprocess10offset_ptrI8mem_infolmLm0EEELb0EEptEv
	leaq	-72(%rbp), %rdi
	callq	_ZNK5boost12interprocess10offset_ptrI8mem_infolmLm0EEptEv
	movl	(%rax), %ecx
	movl	%ecx, -60(%rbp)
	leaq	-88(%rbp), %rdi
	leaq	-24(%rbp), %rsi
	callq	_ZNK5boost9container12vec_iteratorINS_12interprocess10offset_ptrI8mem_infolmLm0EEELb0EEptEv
	leaq	-88(%rbp), %rdi
	callq	_ZNK5boost12interprocess10offset_ptrI8mem_infolmLm0EEptEv
	movl	8(%rax), %ecx
	movl	%ecx, -76(%rbp)
	movl	-60(%rbp), %ecx
	movl	-8(%rbp), %edx
	addl	-12(%rbp), %edx
	cmpl	%edx, %ecx
	jle	.LBB48_5
# %bb.4:                                #   in Loop: Header=BB48_1 Depth=1
	movl	-8(%rbp), %eax
	addl	-12(%rbp), %eax
	leaq	-96(%rbp), %rdi
	leaq	-24(%rbp), %rsi
	movl	%eax, -212(%rbp)        # 4-byte Spill
	callq	_ZNK5boost9container12vec_iteratorINS_12interprocess10offset_ptrI8mem_infolmLm0EEELb0EEptEv
	leaq	-96(%rbp), %rdi
	callq	_ZNK5boost12interprocess10offset_ptrI8mem_infolmLm0EEptEv
	movl	-212(%rbp), %ecx        # 4-byte Reload
	movl	%ecx, 4(%rax)
	movl	-8(%rbp), %esi
	movl	-8(%rbp), %ecx
	addl	-12(%rbp), %ecx
	leaq	-112(%rbp), %rdi
	movl	%ecx, %edx
	callq	_ZN8mem_infoC2Eii
	movl	-76(%rbp), %ecx
	movl	%ecx, -104(%rbp)
	movabsq	$mem_manager, %rdi
	callq	_ZNK5boost12interprocess10offset_ptrINS_9container6vectorI8mem_infoNS0_9allocatorIS4_NS0_15segment_managerIcNS0_15rbtree_best_fitINS0_12mutex_familyENS1_IvlmLm0EEELm0EEENS0_10iset_indexEEEEEvEElmLm0EEptEv
	leaq	-128(%rbp), %rdi
	leaq	-24(%rbp), %rsi
	movq	%rax, -224(%rbp)        # 8-byte Spill
	callq	_ZN5boost9container12vec_iteratorINS_12interprocess10offset_ptrI8mem_infolmLm0EEELb1EEC2ERKNS1_IS5_Lb0EEE
	leaq	-120(%rbp), %rdi
	movq	-224(%rbp), %rsi        # 8-byte Reload
	leaq	-128(%rbp), %rdx
	leaq	-112(%rbp), %rcx
	callq	_ZN5boost9container6vectorI8mem_infoNS_12interprocess9allocatorIS2_NS3_15segment_managerIcNS3_15rbtree_best_fitINS3_12mutex_familyENS3_10offset_ptrIvlmLm0EEELm0EEENS3_10iset_indexEEEEEvE6insertENS0_12vec_iteratorINS8_IS2_lmLm0EEELb1EEERKS2_
	movl	-44(%rbp), %esi
	movl	-8(%rbp), %edx
	leaq	-144(%rbp), %rdi
	callq	_ZN8mem_infoC2Eii
	movl	-76(%rbp), %edx
	movl	%edx, -136(%rbp)
	movabsq	$mem_manager, %rdi
	callq	_ZNK5boost12interprocess10offset_ptrINS_9container6vectorI8mem_infoNS0_9allocatorIS4_NS0_15segment_managerIcNS0_15rbtree_best_fitINS0_12mutex_familyENS1_IvlmLm0EEELm0EEENS0_10iset_indexEEEEEvEElmLm0EEptEv
	leaq	-152(%rbp), %rdi
	leaq	-120(%rbp), %rsi
	movq	%rax, -232(%rbp)        # 8-byte Spill
	callq	_ZN5boost9container12vec_iteratorINS_12interprocess10offset_ptrI8mem_infolmLm0EEELb1EEC2ERKNS1_IS5_Lb0EEE
	leaq	-160(%rbp), %rdi
	movq	-232(%rbp), %rsi        # 8-byte Reload
	leaq	-152(%rbp), %rdx
	leaq	-144(%rbp), %rcx
	callq	_ZN5boost9container6vectorI8mem_infoNS_12interprocess9allocatorIS2_NS3_15segment_managerIcNS3_15rbtree_best_fitINS3_12mutex_familyENS3_10offset_ptrIvlmLm0EEELm0EEENS3_10iset_indexEEEEEvE6insertENS0_12vec_iteratorINS8_IS2_lmLm0EEELb1EEERKS2_
	jmp	.LBB48_8
.LBB48_5:                               #   in Loop: Header=BB48_1 Depth=1
	movl	-60(%rbp), %eax
	movl	-8(%rbp), %ecx
	addl	-12(%rbp), %ecx
	cmpl	%ecx, %eax
	jne	.LBB48_7
# %bb.6:                                #   in Loop: Header=BB48_1 Depth=1
	movl	-8(%rbp), %eax
	leaq	-168(%rbp), %rdi
	leaq	-24(%rbp), %rsi
	movl	%eax, -236(%rbp)        # 4-byte Spill
	callq	_ZNK5boost9container12vec_iteratorINS_12interprocess10offset_ptrI8mem_infolmLm0EEELb0EEptEv
	leaq	-168(%rbp), %rdi
	callq	_ZNK5boost12interprocess10offset_ptrI8mem_infolmLm0EEptEv
	movl	-236(%rbp), %ecx        # 4-byte Reload
	movl	%ecx, 4(%rax)
	movl	-44(%rbp), %esi
	movl	-8(%rbp), %edx
	leaq	-184(%rbp), %rdi
	callq	_ZN8mem_infoC2Eii
	movl	-76(%rbp), %ecx
	movl	%ecx, -176(%rbp)
	movabsq	$mem_manager, %rdi
	callq	_ZNK5boost12interprocess10offset_ptrINS_9container6vectorI8mem_infoNS0_9allocatorIS4_NS0_15segment_managerIcNS0_15rbtree_best_fitINS0_12mutex_familyENS1_IvlmLm0EEELm0EEENS0_10iset_indexEEEEEvEElmLm0EEptEv
	leaq	-192(%rbp), %rdi
	leaq	-24(%rbp), %rsi
	movq	%rax, -248(%rbp)        # 8-byte Spill
	callq	_ZN5boost9container12vec_iteratorINS_12interprocess10offset_ptrI8mem_infolmLm0EEELb1EEC2ERKNS1_IS5_Lb0EEE
	leaq	-200(%rbp), %rdi
	movq	-248(%rbp), %rsi        # 8-byte Reload
	leaq	-192(%rbp), %rdx
	leaq	-184(%rbp), %rcx
	callq	_ZN5boost9container6vectorI8mem_infoNS_12interprocess9allocatorIS2_NS3_15segment_managerIcNS3_15rbtree_best_fitINS3_12mutex_familyENS3_10offset_ptrIvlmLm0EEELm0EEENS3_10iset_indexEEEEEvE6insertENS0_12vec_iteratorINS8_IS2_lmLm0EEELb1EEERKS2_
.LBB48_7:                               #   in Loop: Header=BB48_1 Depth=1
	jmp	.LBB48_8
.LBB48_8:                               #   in Loop: Header=BB48_1 Depth=1
	jmp	.LBB48_9
.LBB48_9:                               #   in Loop: Header=BB48_1 Depth=1
	jmp	.LBB48_10
.LBB48_10:                              #   in Loop: Header=BB48_1 Depth=1
	xorl	%edx, %edx
	leaq	-208(%rbp), %rdi
	leaq	-24(%rbp), %rsi
	callq	_ZN5boost9container12vec_iteratorINS_12interprocess10offset_ptrI8mem_infolmLm0EEELb0EEppEi
	jmp	.LBB48_1
.LBB48_11:
	addq	$256, %rsp              # imm = 0x100
	popq	%rbp
	.cfi_def_cfa %rsp, 8
	retq
.Lfunc_end48:
	.size	_Z6divideiii, .Lfunc_end48-_Z6divideiii
	.cfi_endproc
                                        # -- End function
	.globl	_Z13locked_divideiii    # -- Begin function _Z13locked_divideiii
	.p2align	4, 0x90
	.type	_Z13locked_divideiii,@function
_Z13locked_divideiii:                   # @_Z13locked_divideiii
.Lfunc_begin9:
	.cfi_startproc
	.cfi_personality 3, __gxx_personality_v0
	.cfi_lsda 3, .Lexception9
# %bb.0:
	pushq	%rbp
	.cfi_def_cfa_offset 16
	.cfi_offset %rbp, -16
	movq	%rsp, %rbp
	.cfi_def_cfa_register %rbp
	subq	$336, %rsp              # imm = 0x150
	movl	%edi, -4(%rbp)
	movl	%esi, -8(%rbp)
	movl	%edx, -12(%rbp)
	movq	mtx, %rsi
	leaq	-32(%rbp), %rdi
	callq	_ZN5boost12interprocess11scoped_lockINS0_18interprocess_mutexEEC2ERS2_
	movl	-4(%rbp), %eax
	cmpl	-8(%rbp), %eax
	jne	.LBB49_2
# %bb.1:
	movl	$1, -36(%rbp)
	jmp	.LBB49_21
.LBB49_2:
	movabsq	$mem_manager, %rdi
	callq	_ZNK5boost12interprocess10offset_ptrINS_9container6vectorI8mem_infoNS0_9allocatorIS4_NS0_15segment_managerIcNS0_15rbtree_best_fitINS0_12mutex_familyENS1_IvlmLm0EEELm0EEENS0_10iset_indexEEEEEvEElmLm0EEptEv
	leaq	-48(%rbp), %rdi
	movq	%rax, %rsi
	callq	_ZN5boost9container6vectorI8mem_infoNS_12interprocess9allocatorIS2_NS3_15segment_managerIcNS3_15rbtree_best_fitINS3_12mutex_familyENS3_10offset_ptrIvlmLm0EEELm0EEENS3_10iset_indexEEEEEvE5beginEv
.LBB49_3:                               # =>This Inner Loop Header: Depth=1
	movabsq	$mem_manager, %rdi
	callq	_ZNK5boost12interprocess10offset_ptrINS_9container6vectorI8mem_infoNS0_9allocatorIS4_NS0_15segment_managerIcNS0_15rbtree_best_fitINS0_12mutex_familyENS1_IvlmLm0EEELm0EEENS0_10iset_indexEEEEEvEElmLm0EEptEv
	leaq	-56(%rbp), %rdi
	movq	%rax, %rsi
	callq	_ZN5boost9container6vectorI8mem_infoNS_12interprocess9allocatorIS2_NS3_15segment_managerIcNS3_15rbtree_best_fitINS3_12mutex_familyENS3_10offset_ptrIvlmLm0EEELm0EEENS3_10iset_indexEEEEEvE3endEv
	leaq	-48(%rbp), %rdi
	leaq	-56(%rbp), %rsi
	callq	_ZN5boost9containerneERKNS0_12vec_iteratorINS_12interprocess10offset_ptrI8mem_infolmLm0EEELb0EEES8_
	testb	$1, %al
	jne	.LBB49_4
	jmp	.LBB49_20
.LBB49_4:                               #   in Loop: Header=BB49_3 Depth=1
	leaq	-64(%rbp), %rdi
	leaq	-48(%rbp), %rsi
	callq	_ZNK5boost9container12vec_iteratorINS_12interprocess10offset_ptrI8mem_infolmLm0EEELb0EEptEv
	leaq	-64(%rbp), %rdi
	callq	_ZNK5boost12interprocess10offset_ptrI8mem_infolmLm0EEptEv
	movl	4(%rax), %ecx
	cmpl	-4(%rbp), %ecx
	jne	.LBB49_18
# %bb.5:                                #   in Loop: Header=BB49_3 Depth=1
	leaq	-80(%rbp), %rdi
	leaq	-48(%rbp), %rsi
	callq	_ZNK5boost9container12vec_iteratorINS_12interprocess10offset_ptrI8mem_infolmLm0EEELb0EEptEv
	leaq	-80(%rbp), %rdi
	callq	_ZNK5boost12interprocess10offset_ptrI8mem_infolmLm0EEptEv
	movl	4(%rax), %ecx
	movl	%ecx, -68(%rbp)
	leaq	-96(%rbp), %rdi
	leaq	-48(%rbp), %rsi
	callq	_ZNK5boost9container12vec_iteratorINS_12interprocess10offset_ptrI8mem_infolmLm0EEELb0EEptEv
	leaq	-96(%rbp), %rdi
	callq	_ZNK5boost12interprocess10offset_ptrI8mem_infolmLm0EEptEv
	movl	(%rax), %ecx
	movl	%ecx, -84(%rbp)
	leaq	-112(%rbp), %rdi
	leaq	-48(%rbp), %rsi
	callq	_ZNK5boost9container12vec_iteratorINS_12interprocess10offset_ptrI8mem_infolmLm0EEELb0EEptEv
	leaq	-112(%rbp), %rdi
	callq	_ZNK5boost12interprocess10offset_ptrI8mem_infolmLm0EEptEv
	movl	8(%rax), %ecx
	movl	%ecx, -100(%rbp)
	movl	-84(%rbp), %ecx
	movl	-8(%rbp), %edx
	addl	-12(%rbp), %edx
	cmpl	%edx, %ecx
	jle	.LBB49_12
# %bb.6:                                #   in Loop: Header=BB49_3 Depth=1
	movl	-8(%rbp), %eax
	movl	-12(%rbp), %ecx
	addl	%ecx, %eax
	leaq	-120(%rbp), %rdx
	leaq	-48(%rbp), %rsi
	movq	%rdx, %rdi
	movl	%eax, -252(%rbp)        # 4-byte Spill
	movq	%rdx, -264(%rbp)        # 8-byte Spill
	callq	_ZNK5boost9container12vec_iteratorINS_12interprocess10offset_ptrI8mem_infolmLm0EEELb0EEptEv
	movq	-264(%rbp), %rdi        # 8-byte Reload
	callq	_ZNK5boost12interprocess10offset_ptrI8mem_infolmLm0EEptEv
	movl	-252(%rbp), %ecx        # 4-byte Reload
	movl	%ecx, 4(%rax)
	movl	-8(%rbp), %ecx
	movl	-12(%rbp), %r8d
	movl	%ecx, %r9d
	addl	%r8d, %r9d
.Ltmp66:
	leaq	-136(%rbp), %rdi
	movl	%ecx, %esi
	movl	%r9d, %edx
	callq	_ZN8mem_infoC2Eii
.Ltmp67:
	jmp	.LBB49_7
.LBB49_7:                               #   in Loop: Header=BB49_3 Depth=1
	movl	-100(%rbp), %eax
	movl	%eax, -128(%rbp)
	movl	$mem_manager, %edi
	callq	_ZNK5boost12interprocess10offset_ptrINS_9container6vectorI8mem_infoNS0_9allocatorIS4_NS0_15segment_managerIcNS0_15rbtree_best_fitINS0_12mutex_familyENS1_IvlmLm0EEELm0EEENS0_10iset_indexEEEEEvEElmLm0EEptEv
	leaq	-168(%rbp), %rcx
	leaq	-48(%rbp), %rsi
	movq	%rcx, %rdi
	movq	%rax, -272(%rbp)        # 8-byte Spill
	movq	%rcx, -280(%rbp)        # 8-byte Spill
	callq	_ZN5boost9container12vec_iteratorINS_12interprocess10offset_ptrI8mem_infolmLm0EEELb1EEC2ERKNS1_IS5_Lb0EEE
.Ltmp68:
	leaq	-160(%rbp), %rdi
	leaq	-136(%rbp), %rcx
	movq	-272(%rbp), %rsi        # 8-byte Reload
	movq	-280(%rbp), %rdx        # 8-byte Reload
	callq	_ZN5boost9container6vectorI8mem_infoNS_12interprocess9allocatorIS2_NS3_15segment_managerIcNS3_15rbtree_best_fitINS3_12mutex_familyENS3_10offset_ptrIvlmLm0EEELm0EEENS3_10iset_indexEEEEEvE6insertENS0_12vec_iteratorINS8_IS2_lmLm0EEELb1EEERKS2_
.Ltmp69:
	jmp	.LBB49_8
.LBB49_8:                               #   in Loop: Header=BB49_3 Depth=1
	movl	-68(%rbp), %esi
	movl	-8(%rbp), %edx
.Ltmp70:
	leaq	-184(%rbp), %rdi
	callq	_ZN8mem_infoC2Eii
.Ltmp71:
	jmp	.LBB49_9
.LBB49_9:                               #   in Loop: Header=BB49_3 Depth=1
	movl	-100(%rbp), %eax
	movl	%eax, -176(%rbp)
	movl	$mem_manager, %edi
	callq	_ZNK5boost12interprocess10offset_ptrINS_9container6vectorI8mem_infoNS0_9allocatorIS4_NS0_15segment_managerIcNS0_15rbtree_best_fitINS0_12mutex_familyENS1_IvlmLm0EEELm0EEENS0_10iset_indexEEEEEvEElmLm0EEptEv
	leaq	-192(%rbp), %rcx
	leaq	-160(%rbp), %rsi
	movq	%rcx, %rdi
	movq	%rax, -288(%rbp)        # 8-byte Spill
	movq	%rcx, -296(%rbp)        # 8-byte Spill
	callq	_ZN5boost9container12vec_iteratorINS_12interprocess10offset_ptrI8mem_infolmLm0EEELb1EEC2ERKNS1_IS5_Lb0EEE
.Ltmp72:
	leaq	-200(%rbp), %rdi
	leaq	-184(%rbp), %rcx
	movq	-288(%rbp), %rsi        # 8-byte Reload
	movq	-296(%rbp), %rdx        # 8-byte Reload
	callq	_ZN5boost9container6vectorI8mem_infoNS_12interprocess9allocatorIS2_NS3_15segment_managerIcNS3_15rbtree_best_fitINS3_12mutex_familyENS3_10offset_ptrIvlmLm0EEELm0EEENS3_10iset_indexEEEEEvE6insertENS0_12vec_iteratorINS8_IS2_lmLm0EEELb1EEERKS2_
.Ltmp73:
	jmp	.LBB49_10
.LBB49_10:                              #   in Loop: Header=BB49_3 Depth=1
	jmp	.LBB49_17
.LBB49_11:
.Ltmp74:
                                        # kill: def $edx killed $edx killed $rdx
	movq	%rax, -144(%rbp)
	movl	%edx, -148(%rbp)
	leaq	-32(%rbp), %rdi
	callq	_ZN5boost12interprocess11scoped_lockINS0_18interprocess_mutexEED2Ev
	jmp	.LBB49_23
.LBB49_12:                              #   in Loop: Header=BB49_3 Depth=1
	movl	-84(%rbp), %eax
	movl	-8(%rbp), %ecx
	addl	-12(%rbp), %ecx
	cmpl	%ecx, %eax
	jne	.LBB49_16
# %bb.13:                               #   in Loop: Header=BB49_3 Depth=1
	movl	-8(%rbp), %eax
	leaq	-208(%rbp), %rcx
	leaq	-48(%rbp), %rsi
	movq	%rcx, %rdi
	movl	%eax, -300(%rbp)        # 4-byte Spill
	movq	%rcx, -312(%rbp)        # 8-byte Spill
	callq	_ZNK5boost9container12vec_iteratorINS_12interprocess10offset_ptrI8mem_infolmLm0EEELb0EEptEv
	movq	-312(%rbp), %rdi        # 8-byte Reload
	callq	_ZNK5boost12interprocess10offset_ptrI8mem_infolmLm0EEptEv
	movl	-300(%rbp), %edx        # 4-byte Reload
	movl	%edx, 4(%rax)
	movl	-68(%rbp), %esi
	movl	-8(%rbp), %edx
.Ltmp62:
	leaq	-224(%rbp), %rdi
	callq	_ZN8mem_infoC2Eii
.Ltmp63:
	jmp	.LBB49_14
.LBB49_14:                              #   in Loop: Header=BB49_3 Depth=1
	movl	-100(%rbp), %eax
	movl	%eax, -216(%rbp)
	movl	$mem_manager, %edi
	callq	_ZNK5boost12interprocess10offset_ptrINS_9container6vectorI8mem_infoNS0_9allocatorIS4_NS0_15segment_managerIcNS0_15rbtree_best_fitINS0_12mutex_familyENS1_IvlmLm0EEELm0EEENS0_10iset_indexEEEEEvEElmLm0EEptEv
	leaq	-232(%rbp), %rcx
	leaq	-48(%rbp), %rsi
	movq	%rcx, %rdi
	movq	%rax, -320(%rbp)        # 8-byte Spill
	movq	%rcx, -328(%rbp)        # 8-byte Spill
	callq	_ZN5boost9container12vec_iteratorINS_12interprocess10offset_ptrI8mem_infolmLm0EEELb1EEC2ERKNS1_IS5_Lb0EEE
.Ltmp64:
	leaq	-240(%rbp), %rdi
	leaq	-224(%rbp), %rcx
	movq	-320(%rbp), %rsi        # 8-byte Reload
	movq	-328(%rbp), %rdx        # 8-byte Reload
	callq	_ZN5boost9container6vectorI8mem_infoNS_12interprocess9allocatorIS2_NS3_15segment_managerIcNS3_15rbtree_best_fitINS3_12mutex_familyENS3_10offset_ptrIvlmLm0EEELm0EEENS3_10iset_indexEEEEEvE6insertENS0_12vec_iteratorINS8_IS2_lmLm0EEELb1EEERKS2_
.Ltmp65:
	jmp	.LBB49_15
.LBB49_15:                              #   in Loop: Header=BB49_3 Depth=1
	jmp	.LBB49_16
.LBB49_16:                              #   in Loop: Header=BB49_3 Depth=1
	jmp	.LBB49_17
.LBB49_17:                              #   in Loop: Header=BB49_3 Depth=1
	jmp	.LBB49_18
.LBB49_18:                              #   in Loop: Header=BB49_3 Depth=1
	jmp	.LBB49_19
.LBB49_19:                              #   in Loop: Header=BB49_3 Depth=1
	xorl	%edx, %edx
	leaq	-248(%rbp), %rdi
	leaq	-48(%rbp), %rsi
	callq	_ZN5boost9container12vec_iteratorINS_12interprocess10offset_ptrI8mem_infolmLm0EEELb0EEppEi
	jmp	.LBB49_3
.LBB49_20:
	movl	$0, -36(%rbp)
.LBB49_21:
	leaq	-32(%rbp), %rdi
	callq	_ZN5boost12interprocess11scoped_lockINS0_18interprocess_mutexEED2Ev
# %bb.22:
	addq	$336, %rsp              # imm = 0x150
	popq	%rbp
	.cfi_def_cfa %rsp, 8
	retq
.LBB49_23:
	.cfi_def_cfa %rbp, 16
	movq	-144(%rbp), %rdi
	callq	_Unwind_Resume
# %bb.24:
.Lfunc_end49:
	.size	_Z13locked_divideiii, .Lfunc_end49-_Z13locked_divideiii
	.cfi_endproc
	.section	.gcc_except_table,"a",@progbits
	.p2align	2
GCC_except_table49:
.Lexception9:
	.byte	255                     # @LPStart Encoding = omit
	.byte	255                     # @TType Encoding = omit
	.byte	1                       # Call site Encoding = uleb128
	.uleb128 .Lcst_end9-.Lcst_begin9
.Lcst_begin9:
	.uleb128 .Lfunc_begin9-.Lfunc_begin9 # >> Call Site 1 <<
	.uleb128 .Ltmp66-.Lfunc_begin9  #   Call between .Lfunc_begin9 and .Ltmp66
	.byte	0                       #     has no landing pad
	.byte	0                       #   On action: cleanup
	.uleb128 .Ltmp66-.Lfunc_begin9  # >> Call Site 2 <<
	.uleb128 .Ltmp65-.Ltmp66        #   Call between .Ltmp66 and .Ltmp65
	.uleb128 .Ltmp74-.Lfunc_begin9  #     jumps to .Ltmp74
	.byte	0                       #   On action: cleanup
	.uleb128 .Ltmp65-.Lfunc_begin9  # >> Call Site 3 <<
	.uleb128 .Lfunc_end49-.Ltmp65   #   Call between .Ltmp65 and .Lfunc_end49
	.byte	0                       #     has no landing pad
	.byte	0                       #   On action: cleanup
.Lcst_end9:
	.p2align	2
                                        # -- End function
	.text
	.globl	_Z13manage_dividePvi    # -- Begin function _Z13manage_dividePvi
	.p2align	4, 0x90
	.type	_Z13manage_dividePvi,@function
_Z13manage_dividePvi:                   # @_Z13manage_dividePvi
.Lfunc_begin10:
	.cfi_startproc
	.cfi_personality 3, __gxx_personality_v0
	.cfi_lsda 3, .Lexception10
# %bb.0:
	pushq	%rbp
	.cfi_def_cfa_offset 16
	.cfi_offset %rbp, -16
	movq	%rsp, %rbp
	.cfi_def_cfa_register %rbp
	subq	$80, %rsp
	movq	%rdi, -8(%rbp)
	movl	%esi, -12(%rbp)
	movq	mtx, %rsi
	leaq	-32(%rbp), %rdi
	callq	_ZN5boost12interprocess11scoped_lockINS0_18interprocess_mutexEEC2ERS2_
	movl	$0, -36(%rbp)
.LBB50_1:                               # =>This Inner Loop Header: Depth=1
	cmpl	$10, -36(%rbp)
	jge	.LBB50_20
# %bb.2:                                #   in Loop: Header=BB50_1 Depth=1
	movslq	-36(%rbp), %rax
	imulq	$24, %rax, %rax
	movabsq	$myform, %rcx
	movq	%rcx, %rdx
	addq	%rax, %rdx
	movq	8(%rdx), %rax
	movslq	-36(%rbp), %rdx
	imulq	$24, %rdx, %rdx
	addq	%rdx, %rcx
	movslq	16(%rcx), %rcx
	addq	%rcx, %rax
	cmpq	-8(%rbp), %rax
	jbe	.LBB50_11
# %bb.3:                                #   in Loop: Header=BB50_1 Depth=1
	movq	-8(%rbp), %rax
	movslq	-36(%rbp), %rcx
	imulq	$24, %rcx, %rcx
	movabsq	$myform, %rdx
	addq	%rcx, %rdx
	cmpq	8(%rdx), %rax
	jbe	.LBB50_11
# %bb.4:
	movl	-8(%rbp), %eax
	movslq	-36(%rbp), %rcx
	shlq	$3, %rcx
	movl	myform+8(%rcx,%rcx,2), %edx
	subl	%edx, %eax
	movl	%eax, myform+16(%rcx,%rcx,2)
	movslq	-36(%rbp), %rcx
	leaq	(%rcx,%rcx,2), %rcx
	movl	myform(,%rcx,8), %eax
	movl	%eax, -40(%rbp)
	movslq	-36(%rbp), %rcx
	shlq	$3, %rcx
	movl	myform(%rcx,%rcx,2), %eax
	movl	myform+16(%rcx,%rcx,2), %edx
	addl	%edx, %eax
	movl	%eax, -44(%rbp)
	movq	-8(%rbp), %rdi
	movslq	-36(%rbp), %rcx
	shlq	$3, %rcx
	movl	myform(%rcx,%rcx,2), %eax
	movl	myform+16(%rcx,%rcx,2), %edx
	addl	%edx, %eax
	movl	-12(%rbp), %edx
.Ltmp79:
	movl	%eax, %esi
	callq	_Z10set_offsetPvii
.Ltmp80:
	jmp	.LBB50_5
.LBB50_5:
	movslq	-36(%rbp), %rax
	imulq	$24, %rax, %rax
	movabsq	$myform, %rcx
	movq	%rcx, %rdx
	addq	%rax, %rdx
	movl	(%rdx), %esi
	movslq	-36(%rbp), %rax
	imulq	$24, %rax, %rax
	movq	%rcx, %rdx
	addq	%rax, %rdx
	addl	16(%rdx), %esi
	addl	-12(%rbp), %esi
	movl	%esi, -64(%rbp)
	movslq	-36(%rbp), %rax
	imulq	$24, %rax, %rax
	movq	%rcx, %rdx
	addq	%rax, %rdx
	movl	20(%rdx), %esi
	movslq	-36(%rbp), %rax
	imulq	$24, %rax, %rax
	addq	%rax, %rcx
	movl	16(%rcx), %edi
	addl	-12(%rbp), %edi
	subl	%edi, %esi
	movl	%esi, -68(%rbp)
	cmpl	$0, -68(%rbp)
	jle	.LBB50_9
# %bb.6:
	movq	-8(%rbp), %rax
	movslq	-12(%rbp), %rcx
	movl	%ecx, %edx
	addq	%rcx, %rax
	movslq	-36(%rbp), %rcx
	shlq	$3, %rcx
	movl	myform(%rcx,%rcx,2), %esi
	movl	myform+16(%rcx,%rcx,2), %edi
	addl	%edi, %esi
	addl	%edx, %esi
	movl	-68(%rbp), %edx
.Ltmp81:
	movq	%rax, %rdi
	callq	_Z10set_offsetPvii
.Ltmp82:
	jmp	.LBB50_7
.LBB50_7:
	jmp	.LBB50_9
.LBB50_8:
.Ltmp85:
                                        # kill: def $edx killed $edx killed $rdx
	movq	%rax, -56(%rbp)
	movl	%edx, -60(%rbp)
	leaq	-32(%rbp), %rdi
	callq	_ZN5boost12interprocess11scoped_lockINS0_18interprocess_mutexEED2Ev
	jmp	.LBB50_23
.LBB50_9:
	movl	-40(%rbp), %edi
	movl	-44(%rbp), %esi
	movl	-12(%rbp), %edx
.Ltmp83:
	callq	_Z6divideiii
.Ltmp84:
	jmp	.LBB50_10
.LBB50_10:
	movl	$1, -72(%rbp)
	jmp	.LBB50_21
.LBB50_11:                              #   in Loop: Header=BB50_1 Depth=1
	movslq	-36(%rbp), %rax
	imulq	$24, %rax, %rax
	movabsq	$myform, %rcx
	addq	%rax, %rcx
	movq	8(%rcx), %rax
	cmpq	-8(%rbp), %rax
	jne	.LBB50_17
# %bb.12:                               #   in Loop: Header=BB50_1 Depth=1
	movl	-12(%rbp), %eax
	movslq	-36(%rbp), %rcx
	imulq	$24, %rcx, %rcx
	movabsq	$myform, %rdx
	addq	%rcx, %rdx
	cmpl	16(%rdx), %eax
	jge	.LBB50_16
# %bb.13:                               #   in Loop: Header=BB50_1 Depth=1
	movq	-8(%rbp), %rax
	movslq	-12(%rbp), %rcx
	movl	%ecx, %edx
	addq	%rcx, %rax
	movslq	-36(%rbp), %rcx
	shlq	$3, %rcx
	movl	myform(%rcx,%rcx,2), %esi
	addl	%edx, %esi
	movl	myform+16(%rcx,%rcx,2), %edi
	subl	%edx, %edi
.Ltmp75:
	movl	%edi, -76(%rbp)         # 4-byte Spill
	movq	%rax, %rdi
	movl	-76(%rbp), %edx         # 4-byte Reload
	callq	_Z10set_offsetPvii
.Ltmp76:
	jmp	.LBB50_14
.LBB50_14:                              #   in Loop: Header=BB50_1 Depth=1
	movl	-12(%rbp), %eax
	movslq	-36(%rbp), %rcx
	leaq	(%rcx,%rcx,2), %rcx
	movl	%eax, myform+16(,%rcx,8)
	movslq	-36(%rbp), %rcx
	shlq	$3, %rcx
	movl	myform(%rcx,%rcx,2), %eax
	movl	-12(%rbp), %edx
	movl	%eax, %esi
	addl	%edx, %esi
	movl	myform+16(%rcx,%rcx,2), %edi
	subl	%edx, %edi
.Ltmp77:
	movl	%edi, -80(%rbp)         # 4-byte Spill
	movl	%eax, %edi
	movl	-80(%rbp), %edx         # 4-byte Reload
	callq	_Z6divideiii
.Ltmp78:
	jmp	.LBB50_15
.LBB50_15:                              #   in Loop: Header=BB50_1 Depth=1
	jmp	.LBB50_16
.LBB50_16:                              #   in Loop: Header=BB50_1 Depth=1
	jmp	.LBB50_17
.LBB50_17:                              #   in Loop: Header=BB50_1 Depth=1
	jmp	.LBB50_18
.LBB50_18:                              #   in Loop: Header=BB50_1 Depth=1
	jmp	.LBB50_19
.LBB50_19:                              #   in Loop: Header=BB50_1 Depth=1
	movl	-36(%rbp), %eax
	addl	$1, %eax
	movl	%eax, -36(%rbp)
	jmp	.LBB50_1
.LBB50_20:
	movl	$0, -72(%rbp)
.LBB50_21:
	leaq	-32(%rbp), %rdi
	callq	_ZN5boost12interprocess11scoped_lockINS0_18interprocess_mutexEED2Ev
# %bb.22:
	addq	$80, %rsp
	popq	%rbp
	.cfi_def_cfa %rsp, 8
	retq
.LBB50_23:
	.cfi_def_cfa %rbp, 16
	movq	-56(%rbp), %rdi
	callq	_Unwind_Resume
# %bb.24:
.Lfunc_end50:
	.size	_Z13manage_dividePvi, .Lfunc_end50-_Z13manage_dividePvi
	.cfi_endproc
	.section	.gcc_except_table,"a",@progbits
	.p2align	2
GCC_except_table50:
.Lexception10:
	.byte	255                     # @LPStart Encoding = omit
	.byte	255                     # @TType Encoding = omit
	.byte	1                       # Call site Encoding = uleb128
	.uleb128 .Lcst_end10-.Lcst_begin10
.Lcst_begin10:
	.uleb128 .Lfunc_begin10-.Lfunc_begin10 # >> Call Site 1 <<
	.uleb128 .Ltmp79-.Lfunc_begin10 #   Call between .Lfunc_begin10 and .Ltmp79
	.byte	0                       #     has no landing pad
	.byte	0                       #   On action: cleanup
	.uleb128 .Ltmp79-.Lfunc_begin10 # >> Call Site 2 <<
	.uleb128 .Ltmp78-.Ltmp79        #   Call between .Ltmp79 and .Ltmp78
	.uleb128 .Ltmp85-.Lfunc_begin10 #     jumps to .Ltmp85
	.byte	0                       #   On action: cleanup
	.uleb128 .Ltmp78-.Lfunc_begin10 # >> Call Site 3 <<
	.uleb128 .Lfunc_end50-.Ltmp78   #   Call between .Ltmp78 and .Lfunc_end50
	.byte	0                       #     has no landing pad
	.byte	0                       #   On action: cleanup
.Lcst_end10:
	.p2align	2
                                        # -- End function
	.section	.text.startup,"axG",@progbits,_ZN5boost12interprocess9ipcdetail15num_core_holderILi0EE9num_coresE,comdat
	.p2align	4, 0x90         # -- Begin function __cxx_global_var_init.12
	.type	__cxx_global_var_init.12,@function
__cxx_global_var_init.12:               # @__cxx_global_var_init.12
	.cfi_startproc
# %bb.0:
	pushq	%rbp
	.cfi_def_cfa_offset 16
	.cfi_offset %rbp, -16
	movq	%rsp, %rbp
	.cfi_def_cfa_register %rbp
	cmpb	$0, _ZGVN5boost12interprocess9ipcdetail15num_core_holderILi0EE9num_coresE
	jne	.LBB51_2
# %bb.1:
	callq	_ZN5boost12interprocess9ipcdetail13get_num_coresEv
	movl	%eax, _ZN5boost12interprocess9ipcdetail15num_core_holderILi0EE9num_coresE
	movq	$1, _ZGVN5boost12interprocess9ipcdetail15num_core_holderILi0EE9num_coresE
.LBB51_2:
	popq	%rbp
	.cfi_def_cfa %rsp, 8
	retq
.Lfunc_end51:
	.size	__cxx_global_var_init.12, .Lfunc_end51-__cxx_global_var_init.12
	.cfi_endproc
                                        # -- End function
	.section	.text._ZN5boost12interprocess9ipcdetail13get_num_coresEv,"axG",@progbits,_ZN5boost12interprocess9ipcdetail13get_num_coresEv,comdat
	.weak	_ZN5boost12interprocess9ipcdetail13get_num_coresEv # -- Begin function _ZN5boost12interprocess9ipcdetail13get_num_coresEv
	.p2align	4, 0x90
	.type	_ZN5boost12interprocess9ipcdetail13get_num_coresEv,@function
_ZN5boost12interprocess9ipcdetail13get_num_coresEv: # @_ZN5boost12interprocess9ipcdetail13get_num_coresEv
	.cfi_startproc
# %bb.0:
	pushq	%rbp
	.cfi_def_cfa_offset 16
	.cfi_offset %rbp, -16
	movq	%rsp, %rbp
	.cfi_def_cfa_register %rbp
	subq	$16, %rsp
	movl	$84, %edi
	callq	sysconf
	movq	%rax, -16(%rbp)
	cmpq	$0, -16(%rbp)
	jg	.LBB52_2
# %bb.1:
	movl	$1, -4(%rbp)
	jmp	.LBB52_5
.LBB52_2:
	movl	$4294967295, %eax       # imm = 0xFFFFFFFF
	cmpq	%rax, -16(%rbp)
	jb	.LBB52_4
# %bb.3:
	movl	$-1, -4(%rbp)
	jmp	.LBB52_5
.LBB52_4:
	movq	-16(%rbp), %rax
                                        # kill: def $eax killed $eax killed $rax
	movl	%eax, -4(%rbp)
.LBB52_5:
	movl	-4(%rbp), %eax
	addq	$16, %rsp
	popq	%rbp
	.cfi_def_cfa %rsp, 8
	retq
.Lfunc_end52:
	.size	_ZN5boost12interprocess9ipcdetail13get_num_coresEv, .Lfunc_end52-_ZN5boost12interprocess9ipcdetail13get_num_coresEv
	.cfi_endproc
                                        # -- End function
	.section	.text._ZN5boost12interprocess11permissionsC2Ev,"axG",@progbits,_ZN5boost12interprocess11permissionsC2Ev,comdat
	.weak	_ZN5boost12interprocess11permissionsC2Ev # -- Begin function _ZN5boost12interprocess11permissionsC2Ev
	.p2align	4, 0x90
	.type	_ZN5boost12interprocess11permissionsC2Ev,@function
_ZN5boost12interprocess11permissionsC2Ev: # @_ZN5boost12interprocess11permissionsC2Ev
	.cfi_startproc
# %bb.0:
	pushq	%rbp
	.cfi_def_cfa_offset 16
	.cfi_offset %rbp, -16
	movq	%rsp, %rbp
	.cfi_def_cfa_register %rbp
	subq	$16, %rsp
	movq	%rdi, -8(%rbp)
	movq	-8(%rbp), %rdi
	callq	_ZN5boost12interprocess11permissions11set_defaultEv
	addq	$16, %rsp
	popq	%rbp
	.cfi_def_cfa %rsp, 8
	retq
.Lfunc_end53:
	.size	_ZN5boost12interprocess11permissionsC2Ev, .Lfunc_end53-_ZN5boost12interprocess11permissionsC2Ev
	.cfi_endproc
                                        # -- End function
	.section	.text._ZN5boost12interprocess27basic_managed_shared_memoryIcNS0_15rbtree_best_fitINS0_12mutex_familyENS0_10offset_ptrIvlmLm0EEELm0EEENS0_10iset_indexEEC2ENS0_16open_or_create_tEPKcmPKvRKNS0_11permissionsE,"axG",@progbits,_ZN5boost12interprocess27basic_managed_shared_memoryIcNS0_15rbtree_best_fitINS0_12mutex_familyENS0_10offset_ptrIvlmLm0EEELm0EEENS0_10iset_indexEEC2ENS0_16open_or_create_tEPKcmPKvRKNS0_11permissionsE,comdat
	.weak	_ZN5boost12interprocess27basic_managed_shared_memoryIcNS0_15rbtree_best_fitINS0_12mutex_familyENS0_10offset_ptrIvlmLm0EEELm0EEENS0_10iset_indexEEC2ENS0_16open_or_create_tEPKcmPKvRKNS0_11permissionsE # -- Begin function _ZN5boost12interprocess27basic_managed_shared_memoryIcNS0_15rbtree_best_fitINS0_12mutex_familyENS0_10offset_ptrIvlmLm0EEELm0EEENS0_10iset_indexEEC2ENS0_16open_or_create_tEPKcmPKvRKNS0_11permissionsE
	.p2align	4, 0x90
	.type	_ZN5boost12interprocess27basic_managed_shared_memoryIcNS0_15rbtree_best_fitINS0_12mutex_familyENS0_10offset_ptrIvlmLm0EEELm0EEENS0_10iset_indexEEC2ENS0_16open_or_create_tEPKcmPKvRKNS0_11permissionsE,@function
_ZN5boost12interprocess27basic_managed_shared_memoryIcNS0_15rbtree_best_fitINS0_12mutex_familyENS0_10offset_ptrIvlmLm0EEELm0EEENS0_10iset_indexEEC2ENS0_16open_or_create_tEPKcmPKvRKNS0_11permissionsE: # @_ZN5boost12interprocess27basic_managed_shared_memoryIcNS0_15rbtree_best_fitINS0_12mutex_familyENS0_10offset_ptrIvlmLm0EEELm0EEENS0_10iset_indexEEC2ENS0_16open_or_create_tEPKcmPKvRKNS0_11permissionsE
.Lfunc_begin11:
	.cfi_startproc
	.cfi_personality 3, __gxx_personality_v0
	.cfi_lsda 3, .Lexception11
# %bb.0:
	pushq	%rbp
	.cfi_def_cfa_offset 16
	.cfi_offset %rbp, -16
	movq	%rsp, %rbp
	.cfi_def_cfa_register %rbp
	subq	$144, %rsp
	movq	%rdi, -16(%rbp)
	movq	%rsi, -24(%rbp)
	movq	%rdx, -32(%rbp)
	movq	%rcx, -40(%rbp)
	movq	%r8, -48(%rbp)
	movq	-16(%rbp), %rax
	movq	%rax, %rdi
	movq	%rax, -96(%rbp)         # 8-byte Spill
	callq	_ZN5boost12interprocess9ipcdetail25basic_managed_memory_implIcNS0_15rbtree_best_fitINS0_12mutex_familyENS0_10offset_ptrIvlmLm0EEELm0EEENS0_10iset_indexELm16EEC2Ev
	movq	-96(%rbp), %rax         # 8-byte Reload
	addq	$8, %rax
	movq	-32(%rbp), %rdx
	movq	-40(%rbp), %r8
.Ltmp86:
	movq	-96(%rbp), %rdi         # 8-byte Reload
	movq	%rax, -104(%rbp)        # 8-byte Spill
	movq	%rdx, -112(%rbp)        # 8-byte Spill
	movq	%r8, -120(%rbp)         # 8-byte Spill
	callq	_ZN5boost12interprocess27basic_managed_shared_memoryIcNS0_15rbtree_best_fitINS0_12mutex_familyENS0_10offset_ptrIvlmLm0EEELm0EEENS0_10iset_indexEE16get_this_pointerEv
.Ltmp87:
	movq	%rax, -128(%rbp)        # 8-byte Spill
	jmp	.LBB54_1
.LBB54_1:
.Ltmp88:
	leaq	-72(%rbp), %rdi
	movl	$2, %edx
	movq	-128(%rbp), %rsi        # 8-byte Reload
	callq	_ZN5boost12interprocess9ipcdetail16create_open_funcINS1_25basic_managed_memory_implIcNS0_15rbtree_best_fitINS0_12mutex_familyENS0_10offset_ptrIvlmLm0EEELm0EEENS0_10iset_indexELm16EEEEC2EPSA_NS1_13create_enum_tE
.Ltmp89:
	jmp	.LBB54_2
.LBB54_2:
	movq	-48(%rbp), %rax
.Ltmp90:
	movq	%rsp, %rcx
	movq	%rax, (%rcx)
	leaq	-24(%rbp), %rsi
	movl	$2, %ecx
	leaq	-72(%rbp), %r9
	movq	-104(%rbp), %rdi        # 8-byte Reload
	movq	-112(%rbp), %rdx        # 8-byte Reload
	movq	-120(%rbp), %r8         # 8-byte Reload
	callq	_ZN5boost12interprocess9ipcdetail27managed_open_or_create_implINS0_20shared_memory_objectELm16ELb1ELb0EEC2INS1_16create_open_funcINS1_25basic_managed_memory_implIcNS0_15rbtree_best_fitINS0_12mutex_familyENS0_10offset_ptrIvlmLm0EEELm0EEENS0_10iset_indexELm16EEEEEEENS0_16open_or_create_tERKPKcmNS0_6mode_tEPKvRKT_RKNS0_11permissionsE
.Ltmp91:
	jmp	.LBB54_3
.LBB54_3:
	addq	$144, %rsp
	popq	%rbp
	.cfi_def_cfa %rsp, 8
	retq
.LBB54_4:
	.cfi_def_cfa %rbp, 16
.Ltmp92:
                                        # kill: def $edx killed $edx killed $rdx
	movq	%rax, -80(%rbp)
	movl	%edx, -84(%rbp)
	movq	-96(%rbp), %rax         # 8-byte Reload
	movq	%rax, %rdi
	callq	_ZN5boost12interprocess9ipcdetail25basic_managed_memory_implIcNS0_15rbtree_best_fitINS0_12mutex_familyENS0_10offset_ptrIvlmLm0EEELm0EEENS0_10iset_indexELm16EED2Ev
# %bb.5:
	movq	-80(%rbp), %rdi
	callq	_Unwind_Resume
.Lfunc_end54:
	.size	_ZN5boost12interprocess27basic_managed_shared_memoryIcNS0_15rbtree_best_fitINS0_12mutex_familyENS0_10offset_ptrIvlmLm0EEELm0EEENS0_10iset_indexEEC2ENS0_16open_or_create_tEPKcmPKvRKNS0_11permissionsE, .Lfunc_end54-_ZN5boost12interprocess27basic_managed_shared_memoryIcNS0_15rbtree_best_fitINS0_12mutex_familyENS0_10offset_ptrIvlmLm0EEELm0EEENS0_10iset_indexEEC2ENS0_16open_or_create_tEPKcmPKvRKNS0_11permissionsE
	.cfi_endproc
	.section	.gcc_except_table,"a",@progbits
	.p2align	2
GCC_except_table54:
.Lexception11:
	.byte	255                     # @LPStart Encoding = omit
	.byte	255                     # @TType Encoding = omit
	.byte	1                       # Call site Encoding = uleb128
	.uleb128 .Lcst_end11-.Lcst_begin11
.Lcst_begin11:
	.uleb128 .Ltmp86-.Lfunc_begin11 # >> Call Site 1 <<
	.uleb128 .Ltmp91-.Ltmp86        #   Call between .Ltmp86 and .Ltmp91
	.uleb128 .Ltmp92-.Lfunc_begin11 #     jumps to .Ltmp92
	.byte	0                       #   On action: cleanup
	.uleb128 .Ltmp91-.Lfunc_begin11 # >> Call Site 2 <<
	.uleb128 .Lfunc_end54-.Ltmp91   #   Call between .Ltmp91 and .Lfunc_end54
	.byte	0                       #     has no landing pad
	.byte	0                       #   On action: cleanup
.Lcst_end11:
	.p2align	2
                                        # -- End function
	.section	.text._ZN5boost12interprocess27basic_managed_shared_memoryIcNS0_15rbtree_best_fitINS0_12mutex_familyENS0_10offset_ptrIvlmLm0EEELm0EEENS0_10iset_indexEEaSEOS8_,"axG",@progbits,_ZN5boost12interprocess27basic_managed_shared_memoryIcNS0_15rbtree_best_fitINS0_12mutex_familyENS0_10offset_ptrIvlmLm0EEELm0EEENS0_10iset_indexEEaSEOS8_,comdat
	.weak	_ZN5boost12interprocess27basic_managed_shared_memoryIcNS0_15rbtree_best_fitINS0_12mutex_familyENS0_10offset_ptrIvlmLm0EEELm0EEENS0_10iset_indexEEaSEOS8_ # -- Begin function _ZN5boost12interprocess27basic_managed_shared_memoryIcNS0_15rbtree_best_fitINS0_12mutex_familyENS0_10offset_ptrIvlmLm0EEELm0EEENS0_10iset_indexEEaSEOS8_
	.p2align	4, 0x90
	.type	_ZN5boost12interprocess27basic_managed_shared_memoryIcNS0_15rbtree_best_fitINS0_12mutex_familyENS0_10offset_ptrIvlmLm0EEELm0EEENS0_10iset_indexEEaSEOS8_,@function
_ZN5boost12interprocess27basic_managed_shared_memoryIcNS0_15rbtree_best_fitINS0_12mutex_familyENS0_10offset_ptrIvlmLm0EEELm0EEENS0_10iset_indexEEaSEOS8_: # @_ZN5boost12interprocess27basic_managed_shared_memoryIcNS0_15rbtree_best_fitINS0_12mutex_familyENS0_10offset_ptrIvlmLm0EEELm0EEENS0_10iset_indexEEaSEOS8_
.Lfunc_begin12:
	.cfi_startproc
	.cfi_personality 3, __gxx_personality_v0
	.cfi_lsda 3, .Lexception12
# %bb.0:
	pushq	%rbp
	.cfi_def_cfa_offset 16
	.cfi_offset %rbp, -16
	movq	%rsp, %rbp
	.cfi_def_cfa_register %rbp
	subq	$96, %rsp
	movq	%rdi, -8(%rbp)
	movq	%rsi, -16(%rbp)
	movq	-8(%rbp), %rax
	movq	-16(%rbp), %rdi
	movq	%rax, -80(%rbp)         # 8-byte Spill
	callq	_ZN5boost4moveIRNS_12interprocess27basic_managed_shared_memoryIcNS1_15rbtree_best_fitINS1_12mutex_familyENS1_10offset_ptrIvlmLm0EEELm0EEENS1_10iset_indexEEEEEONS_11move_detail16remove_referenceIT_E4typeEOSD_
	leaq	-56(%rbp), %rcx
	movq	%rcx, %rdi
	movq	%rax, %rsi
	movq	%rcx, -88(%rbp)         # 8-byte Spill
	callq	_ZN5boost12interprocess27basic_managed_shared_memoryIcNS0_15rbtree_best_fitINS0_12mutex_familyENS0_10offset_ptrIvlmLm0EEELm0EEENS0_10iset_indexEEC2EOS8_
.Ltmp93:
	movq	-80(%rbp), %rdi         # 8-byte Reload
	movq	-88(%rbp), %rsi         # 8-byte Reload
	callq	_ZN5boost12interprocess27basic_managed_shared_memoryIcNS0_15rbtree_best_fitINS0_12mutex_familyENS0_10offset_ptrIvlmLm0EEELm0EEENS0_10iset_indexEE4swapERS8_
.Ltmp94:
	jmp	.LBB55_1
.LBB55_1:
	leaq	-56(%rbp), %rdi
	callq	_ZN5boost12interprocess27basic_managed_shared_memoryIcNS0_15rbtree_best_fitINS0_12mutex_familyENS0_10offset_ptrIvlmLm0EEELm0EEENS0_10iset_indexEED2Ev
	movq	-80(%rbp), %rax         # 8-byte Reload
	addq	$96, %rsp
	popq	%rbp
	.cfi_def_cfa %rsp, 8
	retq
.LBB55_2:
	.cfi_def_cfa %rbp, 16
.Ltmp95:
                                        # kill: def $edx killed $edx killed $rdx
	movq	%rax, -64(%rbp)
	movl	%edx, -68(%rbp)
	leaq	-56(%rbp), %rdi
	callq	_ZN5boost12interprocess27basic_managed_shared_memoryIcNS0_15rbtree_best_fitINS0_12mutex_familyENS0_10offset_ptrIvlmLm0EEELm0EEENS0_10iset_indexEED2Ev
# %bb.3:
	movq	-64(%rbp), %rdi
	callq	_Unwind_Resume
.Lfunc_end55:
	.size	_ZN5boost12interprocess27basic_managed_shared_memoryIcNS0_15rbtree_best_fitINS0_12mutex_familyENS0_10offset_ptrIvlmLm0EEELm0EEENS0_10iset_indexEEaSEOS8_, .Lfunc_end55-_ZN5boost12interprocess27basic_managed_shared_memoryIcNS0_15rbtree_best_fitINS0_12mutex_familyENS0_10offset_ptrIvlmLm0EEELm0EEENS0_10iset_indexEEaSEOS8_
	.cfi_endproc
	.section	.gcc_except_table,"a",@progbits
	.p2align	2
GCC_except_table55:
.Lexception12:
	.byte	255                     # @LPStart Encoding = omit
	.byte	255                     # @TType Encoding = omit
	.byte	1                       # Call site Encoding = uleb128
	.uleb128 .Lcst_end12-.Lcst_begin12
.Lcst_begin12:
	.uleb128 .Lfunc_begin12-.Lfunc_begin12 # >> Call Site 1 <<
	.uleb128 .Ltmp93-.Lfunc_begin12 #   Call between .Lfunc_begin12 and .Ltmp93
	.byte	0                       #     has no landing pad
	.byte	0                       #   On action: cleanup
	.uleb128 .Ltmp93-.Lfunc_begin12 # >> Call Site 2 <<
	.uleb128 .Ltmp94-.Ltmp93        #   Call between .Ltmp93 and .Ltmp94
	.uleb128 .Ltmp95-.Lfunc_begin12 #     jumps to .Ltmp95
	.byte	0                       #   On action: cleanup
	.uleb128 .Ltmp94-.Lfunc_begin12 # >> Call Site 3 <<
	.uleb128 .Lfunc_end55-.Ltmp94   #   Call between .Ltmp94 and .Lfunc_end55
	.byte	0                       #     has no landing pad
	.byte	0                       #   On action: cleanup
.Lcst_end12:
	.p2align	2
                                        # -- End function
	.section	.text._ZNK5boost12interprocess9ipcdetail25basic_managed_memory_implIcNS0_15rbtree_best_fitINS0_12mutex_familyENS0_10offset_ptrIvlmLm0EEELm0EEENS0_10iset_indexELm16EE19get_segment_managerEv,"axG",@progbits,_ZNK5boost12interprocess9ipcdetail25basic_managed_memory_implIcNS0_15rbtree_best_fitINS0_12mutex_familyENS0_10offset_ptrIvlmLm0EEELm0EEENS0_10iset_indexELm16EE19get_segment_managerEv,comdat
	.weak	_ZNK5boost12interprocess9ipcdetail25basic_managed_memory_implIcNS0_15rbtree_best_fitINS0_12mutex_familyENS0_10offset_ptrIvlmLm0EEELm0EEENS0_10iset_indexELm16EE19get_segment_managerEv # -- Begin function _ZNK5boost12interprocess9ipcdetail25basic_managed_memory_implIcNS0_15rbtree_best_fitINS0_12mutex_familyENS0_10offset_ptrIvlmLm0EEELm0EEENS0_10iset_indexELm16EE19get_segment_managerEv
	.p2align	4, 0x90
	.type	_ZNK5boost12interprocess9ipcdetail25basic_managed_memory_implIcNS0_15rbtree_best_fitINS0_12mutex_familyENS0_10offset_ptrIvlmLm0EEELm0EEENS0_10iset_indexELm16EE19get_segment_managerEv,@function
_ZNK5boost12interprocess9ipcdetail25basic_managed_memory_implIcNS0_15rbtree_best_fitINS0_12mutex_familyENS0_10offset_ptrIvlmLm0EEELm0EEENS0_10iset_indexELm16EE19get_segment_managerEv: # @_ZNK5boost12interprocess9ipcdetail25basic_managed_memory_implIcNS0_15rbtree_best_fitINS0_12mutex_familyENS0_10offset_ptrIvlmLm0EEELm0EEENS0_10iset_indexELm16EE19get_segment_managerEv
	.cfi_startproc
# %bb.0:
	pushq	%rbp
	.cfi_def_cfa_offset 16
	.cfi_offset %rbp, -16
	movq	%rsp, %rbp
	.cfi_def_cfa_register %rbp
	movq	%rdi, -8(%rbp)
	movq	-8(%rbp), %rax
	movq	(%rax), %rax
	popq	%rbp
	.cfi_def_cfa %rsp, 8
	retq
.Lfunc_end56:
	.size	_ZNK5boost12interprocess9ipcdetail25basic_managed_memory_implIcNS0_15rbtree_best_fitINS0_12mutex_familyENS0_10offset_ptrIvlmLm0EEELm0EEENS0_10iset_indexELm16EE19get_segment_managerEv, .Lfunc_end56-_ZNK5boost12interprocess9ipcdetail25basic_managed_memory_implIcNS0_15rbtree_best_fitINS0_12mutex_familyENS0_10offset_ptrIvlmLm0EEELm0EEENS0_10iset_indexELm16EE19get_segment_managerEv
	.cfi_endproc
                                        # -- End function
	.section	.text._ZN5boost12interprocess9allocatorI8mem_infoNS0_15segment_managerIcNS0_15rbtree_best_fitINS0_12mutex_familyENS0_10offset_ptrIvlmLm0EEELm0EEENS0_10iset_indexEEEEC2EPSA_,"axG",@progbits,_ZN5boost12interprocess9allocatorI8mem_infoNS0_15segment_managerIcNS0_15rbtree_best_fitINS0_12mutex_familyENS0_10offset_ptrIvlmLm0EEELm0EEENS0_10iset_indexEEEEC2EPSA_,comdat
	.weak	_ZN5boost12interprocess9allocatorI8mem_infoNS0_15segment_managerIcNS0_15rbtree_best_fitINS0_12mutex_familyENS0_10offset_ptrIvlmLm0EEELm0EEENS0_10iset_indexEEEEC2EPSA_ # -- Begin function _ZN5boost12interprocess9allocatorI8mem_infoNS0_15segment_managerIcNS0_15rbtree_best_fitINS0_12mutex_familyENS0_10offset_ptrIvlmLm0EEELm0EEENS0_10iset_indexEEEEC2EPSA_
	.p2align	4, 0x90
	.type	_ZN5boost12interprocess9allocatorI8mem_infoNS0_15segment_managerIcNS0_15rbtree_best_fitINS0_12mutex_familyENS0_10offset_ptrIvlmLm0EEELm0EEENS0_10iset_indexEEEEC2EPSA_,@function
_ZN5boost12interprocess9allocatorI8mem_infoNS0_15segment_managerIcNS0_15rbtree_best_fitINS0_12mutex_familyENS0_10offset_ptrIvlmLm0EEELm0EEENS0_10iset_indexEEEEC2EPSA_: # @_ZN5boost12interprocess9allocatorI8mem_infoNS0_15segment_managerIcNS0_15rbtree_best_fitINS0_12mutex_familyENS0_10offset_ptrIvlmLm0EEELm0EEENS0_10iset_indexEEEEC2EPSA_
	.cfi_startproc
# %bb.0:
	pushq	%rbp
	.cfi_def_cfa_offset 16
	.cfi_offset %rbp, -16
	movq	%rsp, %rbp
	.cfi_def_cfa_register %rbp
	subq	$16, %rsp
	movq	%rdi, -8(%rbp)
	movq	%rsi, -16(%rbp)
	movq	-8(%rbp), %rdi
	movq	-16(%rbp), %rsi
	callq	_ZN5boost12interprocess10offset_ptrINS0_15segment_managerIcNS0_15rbtree_best_fitINS0_12mutex_familyENS1_IvlmLm0EEELm0EEENS0_10iset_indexEEElmLm0EEC2EPS8_
	addq	$16, %rsp
	popq	%rbp
	.cfi_def_cfa %rsp, 8
	retq
.Lfunc_end57:
	.size	_ZN5boost12interprocess9allocatorI8mem_infoNS0_15segment_managerIcNS0_15rbtree_best_fitINS0_12mutex_familyENS0_10offset_ptrIvlmLm0EEELm0EEENS0_10iset_indexEEEEC2EPSA_, .Lfunc_end57-_ZN5boost12interprocess9allocatorI8mem_infoNS0_15segment_managerIcNS0_15rbtree_best_fitINS0_12mutex_familyENS0_10offset_ptrIvlmLm0EEELm0EEENS0_10iset_indexEEEEC2EPSA_
	.cfi_endproc
                                        # -- End function
	.section	.text._ZN5boost12interprocess9ipcdetail25basic_managed_memory_implIcNS0_15rbtree_best_fitINS0_12mutex_familyENS0_10offset_ptrIvlmLm0EEELm0EEENS0_10iset_indexELm16EE17find_or_constructINS_9container6vectorI8mem_infoNS0_9allocatorISD_NS0_15segment_managerIcS7_S8_EEEEvEEEENSG_15construct_proxyIT_E4typeENS1_15char_ptr_holderIcEE,"axG",@progbits,_ZN5boost12interprocess9ipcdetail25basic_managed_memory_implIcNS0_15rbtree_best_fitINS0_12mutex_familyENS0_10offset_ptrIvlmLm0EEELm0EEENS0_10iset_indexELm16EE17find_or_constructINS_9container6vectorI8mem_infoNS0_9allocatorISD_NS0_15segment_managerIcS7_S8_EEEEvEEEENSG_15construct_proxyIT_E4typeENS1_15char_ptr_holderIcEE,comdat
	.weak	_ZN5boost12interprocess9ipcdetail25basic_managed_memory_implIcNS0_15rbtree_best_fitINS0_12mutex_familyENS0_10offset_ptrIvlmLm0EEELm0EEENS0_10iset_indexELm16EE17find_or_constructINS_9container6vectorI8mem_infoNS0_9allocatorISD_NS0_15segment_managerIcS7_S8_EEEEvEEEENSG_15construct_proxyIT_E4typeENS1_15char_ptr_holderIcEE # -- Begin function _ZN5boost12interprocess9ipcdetail25basic_managed_memory_implIcNS0_15rbtree_best_fitINS0_12mutex_familyENS0_10offset_ptrIvlmLm0EEELm0EEENS0_10iset_indexELm16EE17find_or_constructINS_9container6vectorI8mem_infoNS0_9allocatorISD_NS0_15segment_managerIcS7_S8_EEEEvEEEENSG_15construct_proxyIT_E4typeENS1_15char_ptr_holderIcEE
	.p2align	4, 0x90
	.type	_ZN5boost12interprocess9ipcdetail25basic_managed_memory_implIcNS0_15rbtree_best_fitINS0_12mutex_familyENS0_10offset_ptrIvlmLm0EEELm0EEENS0_10iset_indexELm16EE17find_or_constructINS_9container6vectorI8mem_infoNS0_9allocatorISD_NS0_15segment_managerIcS7_S8_EEEEvEEEENSG_15construct_proxyIT_E4typeENS1_15char_ptr_holderIcEE,@function
_ZN5boost12interprocess9ipcdetail25basic_managed_memory_implIcNS0_15rbtree_best_fitINS0_12mutex_familyENS0_10offset_ptrIvlmLm0EEELm0EEENS0_10iset_indexELm16EE17find_or_constructINS_9container6vectorI8mem_infoNS0_9allocatorISD_NS0_15segment_managerIcS7_S8_EEEEvEEEENSG_15construct_proxyIT_E4typeENS1_15char_ptr_holderIcEE: # @_ZN5boost12interprocess9ipcdetail25basic_managed_memory_implIcNS0_15rbtree_best_fitINS0_12mutex_familyENS0_10offset_ptrIvlmLm0EEELm0EEENS0_10iset_indexELm16EE17find_or_constructINS_9container6vectorI8mem_infoNS0_9allocatorISD_NS0_15segment_managerIcS7_S8_EEEEvEEEENSG_15construct_proxyIT_E4typeENS1_15char_ptr_holderIcEE
	.cfi_startproc
# %bb.0:
	pushq	%rbp
	.cfi_def_cfa_offset 16
	.cfi_offset %rbp, -16
	movq	%rsp, %rbp
	.cfi_def_cfa_register %rbp
	subq	$32, %rsp
	movq	%rdi, %rax
	movq	%rdx, -8(%rbp)
	movq	%rsi, -16(%rbp)
	movq	-16(%rbp), %rcx
	movq	(%rcx), %rsi
	movq	-8(%rbp), %rcx
	movq	%rcx, -24(%rbp)
	movq	-24(%rbp), %rdx
	movq	%rax, -32(%rbp)         # 8-byte Spill
	callq	_ZN5boost12interprocess15segment_managerIcNS0_15rbtree_best_fitINS0_12mutex_familyENS0_10offset_ptrIvlmLm0EEELm0EEENS0_10iset_indexEE17find_or_constructINS_9container6vectorI8mem_infoNS0_9allocatorISC_S8_EEvEEEENS8_15construct_proxyIT_E4typeENS0_9ipcdetail15char_ptr_holderIcEE
	movq	-32(%rbp), %rax         # 8-byte Reload
	addq	$32, %rsp
	popq	%rbp
	.cfi_def_cfa %rsp, 8
	retq
.Lfunc_end58:
	.size	_ZN5boost12interprocess9ipcdetail25basic_managed_memory_implIcNS0_15rbtree_best_fitINS0_12mutex_familyENS0_10offset_ptrIvlmLm0EEELm0EEENS0_10iset_indexELm16EE17find_or_constructINS_9container6vectorI8mem_infoNS0_9allocatorISD_NS0_15segment_managerIcS7_S8_EEEEvEEEENSG_15construct_proxyIT_E4typeENS1_15char_ptr_holderIcEE, .Lfunc_end58-_ZN5boost12interprocess9ipcdetail25basic_managed_memory_implIcNS0_15rbtree_best_fitINS0_12mutex_familyENS0_10offset_ptrIvlmLm0EEELm0EEENS0_10iset_indexELm16EE17find_or_constructINS_9container6vectorI8mem_infoNS0_9allocatorISD_NS0_15segment_managerIcS7_S8_EEEEvEEEENSG_15construct_proxyIT_E4typeENS1_15char_ptr_holderIcEE
	.cfi_endproc
                                        # -- End function
	.section	.text._ZN5boost12interprocess9ipcdetail15char_ptr_holderIcEC2EPKc,"axG",@progbits,_ZN5boost12interprocess9ipcdetail15char_ptr_holderIcEC2EPKc,comdat
	.weak	_ZN5boost12interprocess9ipcdetail15char_ptr_holderIcEC2EPKc # -- Begin function _ZN5boost12interprocess9ipcdetail15char_ptr_holderIcEC2EPKc
	.p2align	4, 0x90
	.type	_ZN5boost12interprocess9ipcdetail15char_ptr_holderIcEC2EPKc,@function
_ZN5boost12interprocess9ipcdetail15char_ptr_holderIcEC2EPKc: # @_ZN5boost12interprocess9ipcdetail15char_ptr_holderIcEC2EPKc
	.cfi_startproc
# %bb.0:
	pushq	%rbp
	.cfi_def_cfa_offset 16
	.cfi_offset %rbp, -16
	movq	%rsp, %rbp
	.cfi_def_cfa_register %rbp
	movq	%rdi, -8(%rbp)
	movq	%rsi, -16(%rbp)
	movq	-8(%rbp), %rax
	movq	-16(%rbp), %rcx
	movq	%rcx, (%rax)
	popq	%rbp
	.cfi_def_cfa %rsp, 8
	retq
.Lfunc_end59:
	.size	_ZN5boost12interprocess9ipcdetail15char_ptr_holderIcEC2EPKc, .Lfunc_end59-_ZN5boost12interprocess9ipcdetail15char_ptr_holderIcEC2EPKc
	.cfi_endproc
                                        # -- End function
	.section	.text._ZNK5boost12interprocess9ipcdetail11named_proxyINS0_15segment_managerIcNS0_15rbtree_best_fitINS0_12mutex_familyENS0_10offset_ptrIvlmLm0EEELm0EEENS0_10iset_indexEEENS_9container6vectorI8mem_infoNS0_9allocatorISD_SA_EEvEELb0EEclIJRKSF_EEEPSG_DpOT_,"axG",@progbits,_ZNK5boost12interprocess9ipcdetail11named_proxyINS0_15segment_managerIcNS0_15rbtree_best_fitINS0_12mutex_familyENS0_10offset_ptrIvlmLm0EEELm0EEENS0_10iset_indexEEENS_9container6vectorI8mem_infoNS0_9allocatorISD_SA_EEvEELb0EEclIJRKSF_EEEPSG_DpOT_,comdat
	.weak	_ZNK5boost12interprocess9ipcdetail11named_proxyINS0_15segment_managerIcNS0_15rbtree_best_fitINS0_12mutex_familyENS0_10offset_ptrIvlmLm0EEELm0EEENS0_10iset_indexEEENS_9container6vectorI8mem_infoNS0_9allocatorISD_SA_EEvEELb0EEclIJRKSF_EEEPSG_DpOT_ # -- Begin function _ZNK5boost12interprocess9ipcdetail11named_proxyINS0_15segment_managerIcNS0_15rbtree_best_fitINS0_12mutex_familyENS0_10offset_ptrIvlmLm0EEELm0EEENS0_10iset_indexEEENS_9container6vectorI8mem_infoNS0_9allocatorISD_SA_EEvEELb0EEclIJRKSF_EEEPSG_DpOT_
	.p2align	4, 0x90
	.type	_ZNK5boost12interprocess9ipcdetail11named_proxyINS0_15segment_managerIcNS0_15rbtree_best_fitINS0_12mutex_familyENS0_10offset_ptrIvlmLm0EEELm0EEENS0_10iset_indexEEENS_9container6vectorI8mem_infoNS0_9allocatorISD_SA_EEvEELb0EEclIJRKSF_EEEPSG_DpOT_,@function
_ZNK5boost12interprocess9ipcdetail11named_proxyINS0_15segment_managerIcNS0_15rbtree_best_fitINS0_12mutex_familyENS0_10offset_ptrIvlmLm0EEELm0EEENS0_10iset_indexEEENS_9container6vectorI8mem_infoNS0_9allocatorISD_SA_EEvEELb0EEclIJRKSF_EEEPSG_DpOT_: # @_ZNK5boost12interprocess9ipcdetail11named_proxyINS0_15segment_managerIcNS0_15rbtree_best_fitINS0_12mutex_familyENS0_10offset_ptrIvlmLm0EEELm0EEENS0_10iset_indexEEENS_9container6vectorI8mem_infoNS0_9allocatorISD_SA_EEvEELb0EEclIJRKSF_EEEPSG_DpOT_
.Lfunc_begin13:
	.cfi_startproc
	.cfi_personality 3, __gxx_personality_v0
	.cfi_lsda 3, .Lexception13
# %bb.0:
	pushq	%rbp
	.cfi_def_cfa_offset 16
	.cfi_offset %rbp, -16
	movq	%rsp, %rbp
	.cfi_def_cfa_register %rbp
	subq	$112, %rsp
	movq	%rdi, -8(%rbp)
	movq	%rsi, -16(%rbp)
	movq	-8(%rbp), %rax
	movq	-16(%rbp), %rdi
	movq	%rax, -88(%rbp)         # 8-byte Spill
	callq	_ZN5boost7forwardIRKNS_12interprocess9allocatorI8mem_infoNS1_15segment_managerIcNS1_15rbtree_best_fitINS1_12mutex_familyENS1_10offset_ptrIvlmLm0EEELm0EEENS1_10iset_indexEEEEEEEOT_RNS_11move_detail16remove_referenceISF_E4typeE
	leaq	-64(%rbp), %rcx
	movq	%rcx, %rdi
	movq	%rax, %rsi
	movq	%rcx, -96(%rbp)         # 8-byte Spill
	callq	_ZN5boost12interprocess9ipcdetail8CtorArgNINS_9container6vectorI8mem_infoNS0_9allocatorIS5_NS0_15segment_managerIcNS0_15rbtree_best_fitINS0_12mutex_familyENS0_10offset_ptrIvlmLm0EEELm0EEENS0_10iset_indexEEEEEvEELb0EJRKSF_EEC2ESI_
	movq	-96(%rbp), %rax         # 8-byte Reload
	movq	%rax, -24(%rbp)
	movq	-88(%rbp), %rcx         # 8-byte Reload
	movq	(%rcx), %rsi
	movq	8(%rcx), %rdi
	movq	16(%rcx), %rdx
	movq	-24(%rbp), %r9
	movzbl	25(%rcx), %r8d
	movzbl	24(%rcx), %r10d
.Ltmp96:
	andl	$1, %r10d
	andl	$1, %r8d
	movl	%r10d, %ecx
	callq	_ZN5boost12interprocess15segment_managerIcNS0_15rbtree_best_fitINS0_12mutex_familyENS0_10offset_ptrIvlmLm0EEELm0EEENS0_10iset_indexEE17generic_constructINS_9container6vectorI8mem_infoNS0_9allocatorISC_S8_EEvEEEEPT_PKcmbbRNS0_9ipcdetail18in_place_interfaceE
.Ltmp97:
	movq	%rax, -104(%rbp)        # 8-byte Spill
	jmp	.LBB60_1
.LBB60_1:
	leaq	-64(%rbp), %rdi
	callq	_ZN5boost12interprocess9ipcdetail8CtorArgNINS_9container6vectorI8mem_infoNS0_9allocatorIS5_NS0_15segment_managerIcNS0_15rbtree_best_fitINS0_12mutex_familyENS0_10offset_ptrIvlmLm0EEELm0EEENS0_10iset_indexEEEEEvEELb0EJRKSF_EED2Ev
	movq	-104(%rbp), %rax        # 8-byte Reload
	addq	$112, %rsp
	popq	%rbp
	.cfi_def_cfa %rsp, 8
	retq
.LBB60_2:
	.cfi_def_cfa %rbp, 16
.Ltmp98:
                                        # kill: def $edx killed $edx killed $rdx
	movq	%rax, -72(%rbp)
	movl	%edx, -76(%rbp)
	leaq	-64(%rbp), %rdi
	callq	_ZN5boost12interprocess9ipcdetail8CtorArgNINS_9container6vectorI8mem_infoNS0_9allocatorIS5_NS0_15segment_managerIcNS0_15rbtree_best_fitINS0_12mutex_familyENS0_10offset_ptrIvlmLm0EEELm0EEENS0_10iset_indexEEEEEvEELb0EJRKSF_EED2Ev
# %bb.3:
	movq	-72(%rbp), %rdi
	callq	_Unwind_Resume
.Lfunc_end60:
	.size	_ZNK5boost12interprocess9ipcdetail11named_proxyINS0_15segment_managerIcNS0_15rbtree_best_fitINS0_12mutex_familyENS0_10offset_ptrIvlmLm0EEELm0EEENS0_10iset_indexEEENS_9container6vectorI8mem_infoNS0_9allocatorISD_SA_EEvEELb0EEclIJRKSF_EEEPSG_DpOT_, .Lfunc_end60-_ZNK5boost12interprocess9ipcdetail11named_proxyINS0_15segment_managerIcNS0_15rbtree_best_fitINS0_12mutex_familyENS0_10offset_ptrIvlmLm0EEELm0EEENS0_10iset_indexEEENS_9container6vectorI8mem_infoNS0_9allocatorISD_SA_EEvEELb0EEclIJRKSF_EEEPSG_DpOT_
	.cfi_endproc
	.section	.gcc_except_table,"a",@progbits
	.p2align	2
GCC_except_table60:
.Lexception13:
	.byte	255                     # @LPStart Encoding = omit
	.byte	255                     # @TType Encoding = omit
	.byte	1                       # Call site Encoding = uleb128
	.uleb128 .Lcst_end13-.Lcst_begin13
.Lcst_begin13:
	.uleb128 .Lfunc_begin13-.Lfunc_begin13 # >> Call Site 1 <<
	.uleb128 .Ltmp96-.Lfunc_begin13 #   Call between .Lfunc_begin13 and .Ltmp96
	.byte	0                       #     has no landing pad
	.byte	0                       #   On action: cleanup
	.uleb128 .Ltmp96-.Lfunc_begin13 # >> Call Site 2 <<
	.uleb128 .Ltmp97-.Ltmp96        #   Call between .Ltmp96 and .Ltmp97
	.uleb128 .Ltmp98-.Lfunc_begin13 #     jumps to .Ltmp98
	.byte	0                       #   On action: cleanup
	.uleb128 .Ltmp97-.Lfunc_begin13 # >> Call Site 3 <<
	.uleb128 .Lfunc_end60-.Ltmp97   #   Call between .Ltmp97 and .Lfunc_end60
	.byte	0                       #     has no landing pad
	.byte	0                       #   On action: cleanup
.Lcst_end13:
	.p2align	2
                                        # -- End function
	.section	.text._ZN5boost12interprocess10offset_ptrINS_9container6vectorI8mem_infoNS0_9allocatorIS4_NS0_15segment_managerIcNS0_15rbtree_best_fitINS0_12mutex_familyENS1_IvlmLm0EEELm0EEENS0_10iset_indexEEEEEvEElmLm0EEaSEPSE_,"axG",@progbits,_ZN5boost12interprocess10offset_ptrINS_9container6vectorI8mem_infoNS0_9allocatorIS4_NS0_15segment_managerIcNS0_15rbtree_best_fitINS0_12mutex_familyENS1_IvlmLm0EEELm0EEENS0_10iset_indexEEEEEvEElmLm0EEaSEPSE_,comdat
	.weak	_ZN5boost12interprocess10offset_ptrINS_9container6vectorI8mem_infoNS0_9allocatorIS4_NS0_15segment_managerIcNS0_15rbtree_best_fitINS0_12mutex_familyENS1_IvlmLm0EEELm0EEENS0_10iset_indexEEEEEvEElmLm0EEaSEPSE_ # -- Begin function _ZN5boost12interprocess10offset_ptrINS_9container6vectorI8mem_infoNS0_9allocatorIS4_NS0_15segment_managerIcNS0_15rbtree_best_fitINS0_12mutex_familyENS1_IvlmLm0EEELm0EEENS0_10iset_indexEEEEEvEElmLm0EEaSEPSE_
	.p2align	4, 0x90
	.type	_ZN5boost12interprocess10offset_ptrINS_9container6vectorI8mem_infoNS0_9allocatorIS4_NS0_15segment_managerIcNS0_15rbtree_best_fitINS0_12mutex_familyENS1_IvlmLm0EEELm0EEENS0_10iset_indexEEEEEvEElmLm0EEaSEPSE_,@function
_ZN5boost12interprocess10offset_ptrINS_9container6vectorI8mem_infoNS0_9allocatorIS4_NS0_15segment_managerIcNS0_15rbtree_best_fitINS0_12mutex_familyENS1_IvlmLm0EEELm0EEENS0_10iset_indexEEEEEvEElmLm0EEaSEPSE_: # @_ZN5boost12interprocess10offset_ptrINS_9container6vectorI8mem_infoNS0_9allocatorIS4_NS0_15segment_managerIcNS0_15rbtree_best_fitINS0_12mutex_familyENS1_IvlmLm0EEELm0EEENS0_10iset_indexEEEEEvEElmLm0EEaSEPSE_
.Lfunc_begin14:
	.cfi_startproc
	.cfi_personality 3, __gxx_personality_v0
	.cfi_lsda 3, .Lexception14
# %bb.0:
	pushq	%rbp
	.cfi_def_cfa_offset 16
	.cfi_offset %rbp, -16
	movq	%rsp, %rbp
	.cfi_def_cfa_register %rbp
	subq	$48, %rsp
	movq	%rdi, -8(%rbp)
	movq	%rsi, -16(%rbp)
	movq	-8(%rbp), %rax
	movq	-16(%rbp), %rdi
.Ltmp99:
	movq	%rax, %rsi
	movq	%rax, -24(%rbp)         # 8-byte Spill
	callq	_ZN5boost12interprocess9ipcdetail20offset_ptr_to_offsetImEET_PVKvS5_
.Ltmp100:
	movq	%rax, -32(%rbp)         # 8-byte Spill
	jmp	.LBB61_1
.LBB61_1:
	movq	-24(%rbp), %rax         # 8-byte Reload
	movq	-32(%rbp), %rcx         # 8-byte Reload
	movq	%rcx, (%rax)
	addq	$48, %rsp
	popq	%rbp
	.cfi_def_cfa %rsp, 8
	retq
.LBB61_2:
	.cfi_def_cfa %rbp, 16
.Ltmp101:
                                        # kill: def $edx killed $edx killed $rdx
	movq	%rax, %rdi
	movl	%edx, -36(%rbp)         # 4-byte Spill
	callq	__clang_call_terminate
.Lfunc_end61:
	.size	_ZN5boost12interprocess10offset_ptrINS_9container6vectorI8mem_infoNS0_9allocatorIS4_NS0_15segment_managerIcNS0_15rbtree_best_fitINS0_12mutex_familyENS1_IvlmLm0EEELm0EEENS0_10iset_indexEEEEEvEElmLm0EEaSEPSE_, .Lfunc_end61-_ZN5boost12interprocess10offset_ptrINS_9container6vectorI8mem_infoNS0_9allocatorIS4_NS0_15segment_managerIcNS0_15rbtree_best_fitINS0_12mutex_familyENS1_IvlmLm0EEELm0EEENS0_10iset_indexEEEEEvEElmLm0EEaSEPSE_
	.cfi_endproc
	.section	.gcc_except_table,"a",@progbits
	.p2align	2
GCC_except_table61:
.Lexception14:
	.byte	255                     # @LPStart Encoding = omit
	.byte	3                       # @TType Encoding = udata4
	.uleb128 .Lttbase3-.Lttbaseref3
.Lttbaseref3:
	.byte	1                       # Call site Encoding = uleb128
	.uleb128 .Lcst_end14-.Lcst_begin14
.Lcst_begin14:
	.uleb128 .Ltmp99-.Lfunc_begin14 # >> Call Site 1 <<
	.uleb128 .Ltmp100-.Ltmp99       #   Call between .Ltmp99 and .Ltmp100
	.uleb128 .Ltmp101-.Lfunc_begin14 #     jumps to .Ltmp101
	.byte	1                       #   On action: 1
.Lcst_end14:
	.byte	1                       # >> Action Record 1 <<
                                        #   Catch TypeInfo 1
	.byte	0                       #   No further actions
	.p2align	2
                                        # >> Catch TypeInfos <<
	.long	0                       # TypeInfo 1
.Lttbase3:
	.p2align	2
                                        # -- End function
	.section	.text._ZN5boost12interprocess9ipcdetail25basic_managed_memory_implIcNS0_15rbtree_best_fitINS0_12mutex_familyENS0_10offset_ptrIvlmLm0EEELm0EEENS0_10iset_indexELm16EE8allocateEm,"axG",@progbits,_ZN5boost12interprocess9ipcdetail25basic_managed_memory_implIcNS0_15rbtree_best_fitINS0_12mutex_familyENS0_10offset_ptrIvlmLm0EEELm0EEENS0_10iset_indexELm16EE8allocateEm,comdat
	.weak	_ZN5boost12interprocess9ipcdetail25basic_managed_memory_implIcNS0_15rbtree_best_fitINS0_12mutex_familyENS0_10offset_ptrIvlmLm0EEELm0EEENS0_10iset_indexELm16EE8allocateEm # -- Begin function _ZN5boost12interprocess9ipcdetail25basic_managed_memory_implIcNS0_15rbtree_best_fitINS0_12mutex_familyENS0_10offset_ptrIvlmLm0EEELm0EEENS0_10iset_indexELm16EE8allocateEm
	.p2align	4, 0x90
	.type	_ZN5boost12interprocess9ipcdetail25basic_managed_memory_implIcNS0_15rbtree_best_fitINS0_12mutex_familyENS0_10offset_ptrIvlmLm0EEELm0EEENS0_10iset_indexELm16EE8allocateEm,@function
_ZN5boost12interprocess9ipcdetail25basic_managed_memory_implIcNS0_15rbtree_best_fitINS0_12mutex_familyENS0_10offset_ptrIvlmLm0EEELm0EEENS0_10iset_indexELm16EE8allocateEm: # @_ZN5boost12interprocess9ipcdetail25basic_managed_memory_implIcNS0_15rbtree_best_fitINS0_12mutex_familyENS0_10offset_ptrIvlmLm0EEELm0EEENS0_10iset_indexELm16EE8allocateEm
	.cfi_startproc
# %bb.0:
	pushq	%rbp
	.cfi_def_cfa_offset 16
	.cfi_offset %rbp, -16
	movq	%rsp, %rbp
	.cfi_def_cfa_register %rbp
	subq	$16, %rsp
	movq	%rdi, -8(%rbp)
	movq	%rsi, -16(%rbp)
	movq	-8(%rbp), %rax
	movq	(%rax), %rax
	movq	-16(%rbp), %rsi
	movq	%rax, %rdi
	callq	_ZN5boost12interprocess20segment_manager_baseINS0_15rbtree_best_fitINS0_12mutex_familyENS0_10offset_ptrIvlmLm0EEELm0EEEE8allocateEm
	addq	$16, %rsp
	popq	%rbp
	.cfi_def_cfa %rsp, 8
	retq
.Lfunc_end62:
	.size	_ZN5boost12interprocess9ipcdetail25basic_managed_memory_implIcNS0_15rbtree_best_fitINS0_12mutex_familyENS0_10offset_ptrIvlmLm0EEELm0EEENS0_10iset_indexELm16EE8allocateEm, .Lfunc_end62-_ZN5boost12interprocess9ipcdetail25basic_managed_memory_implIcNS0_15rbtree_best_fitINS0_12mutex_familyENS0_10offset_ptrIvlmLm0EEELm0EEENS0_10iset_indexELm16EE8allocateEm
	.cfi_endproc
                                        # -- End function
	.section	.text._ZN5boost12interprocess9ipcdetail25basic_managed_memory_implIcNS0_15rbtree_best_fitINS0_12mutex_familyENS0_10offset_ptrIvlmLm0EEELm0EEENS0_10iset_indexELm16EE17find_or_constructINS0_18interprocess_mutexEEENS0_15segment_managerIcS7_S8_E15construct_proxyIT_E4typeENS1_15char_ptr_holderIcEE,"axG",@progbits,_ZN5boost12interprocess9ipcdetail25basic_managed_memory_implIcNS0_15rbtree_best_fitINS0_12mutex_familyENS0_10offset_ptrIvlmLm0EEELm0EEENS0_10iset_indexELm16EE17find_or_constructINS0_18interprocess_mutexEEENS0_15segment_managerIcS7_S8_E15construct_proxyIT_E4typeENS1_15char_ptr_holderIcEE,comdat
	.weak	_ZN5boost12interprocess9ipcdetail25basic_managed_memory_implIcNS0_15rbtree_best_fitINS0_12mutex_familyENS0_10offset_ptrIvlmLm0EEELm0EEENS0_10iset_indexELm16EE17find_or_constructINS0_18interprocess_mutexEEENS0_15segment_managerIcS7_S8_E15construct_proxyIT_E4typeENS1_15char_ptr_holderIcEE # -- Begin function _ZN5boost12interprocess9ipcdetail25basic_managed_memory_implIcNS0_15rbtree_best_fitINS0_12mutex_familyENS0_10offset_ptrIvlmLm0EEELm0EEENS0_10iset_indexELm16EE17find_or_constructINS0_18interprocess_mutexEEENS0_15segment_managerIcS7_S8_E15construct_proxyIT_E4typeENS1_15char_ptr_holderIcEE
	.p2align	4, 0x90
	.type	_ZN5boost12interprocess9ipcdetail25basic_managed_memory_implIcNS0_15rbtree_best_fitINS0_12mutex_familyENS0_10offset_ptrIvlmLm0EEELm0EEENS0_10iset_indexELm16EE17find_or_constructINS0_18interprocess_mutexEEENS0_15segment_managerIcS7_S8_E15construct_proxyIT_E4typeENS1_15char_ptr_holderIcEE,@function
_ZN5boost12interprocess9ipcdetail25basic_managed_memory_implIcNS0_15rbtree_best_fitINS0_12mutex_familyENS0_10offset_ptrIvlmLm0EEELm0EEENS0_10iset_indexELm16EE17find_or_constructINS0_18interprocess_mutexEEENS0_15segment_managerIcS7_S8_E15construct_proxyIT_E4typeENS1_15char_ptr_holderIcEE: # @_ZN5boost12interprocess9ipcdetail25basic_managed_memory_implIcNS0_15rbtree_best_fitINS0_12mutex_familyENS0_10offset_ptrIvlmLm0EEELm0EEENS0_10iset_indexELm16EE17find_or_constructINS0_18interprocess_mutexEEENS0_15segment_managerIcS7_S8_E15construct_proxyIT_E4typeENS1_15char_ptr_holderIcEE
	.cfi_startproc
# %bb.0:
	pushq	%rbp
	.cfi_def_cfa_offset 16
	.cfi_offset %rbp, -16
	movq	%rsp, %rbp
	.cfi_def_cfa_register %rbp
	subq	$32, %rsp
	movq	%rdi, %rax
	movq	%rdx, -8(%rbp)
	movq	%rsi, -16(%rbp)
	movq	-16(%rbp), %rcx
	movq	(%rcx), %rsi
	movq	-8(%rbp), %rcx
	movq	%rcx, -24(%rbp)
	movq	-24(%rbp), %rdx
	movq	%rax, -32(%rbp)         # 8-byte Spill
	callq	_ZN5boost12interprocess15segment_managerIcNS0_15rbtree_best_fitINS0_12mutex_familyENS0_10offset_ptrIvlmLm0EEELm0EEENS0_10iset_indexEE17find_or_constructINS0_18interprocess_mutexEEENS8_15construct_proxyIT_E4typeENS0_9ipcdetail15char_ptr_holderIcEE
	movq	-32(%rbp), %rax         # 8-byte Reload
	addq	$32, %rsp
	popq	%rbp
	.cfi_def_cfa %rsp, 8
	retq
.Lfunc_end63:
	.size	_ZN5boost12interprocess9ipcdetail25basic_managed_memory_implIcNS0_15rbtree_best_fitINS0_12mutex_familyENS0_10offset_ptrIvlmLm0EEELm0EEENS0_10iset_indexELm16EE17find_or_constructINS0_18interprocess_mutexEEENS0_15segment_managerIcS7_S8_E15construct_proxyIT_E4typeENS1_15char_ptr_holderIcEE, .Lfunc_end63-_ZN5boost12interprocess9ipcdetail25basic_managed_memory_implIcNS0_15rbtree_best_fitINS0_12mutex_familyENS0_10offset_ptrIvlmLm0EEELm0EEENS0_10iset_indexELm16EE17find_or_constructINS0_18interprocess_mutexEEENS0_15segment_managerIcS7_S8_E15construct_proxyIT_E4typeENS1_15char_ptr_holderIcEE
	.cfi_endproc
                                        # -- End function
	.section	.text._ZNK5boost12interprocess9ipcdetail11named_proxyINS0_15segment_managerIcNS0_15rbtree_best_fitINS0_12mutex_familyENS0_10offset_ptrIvlmLm0EEELm0EEENS0_10iset_indexEEENS0_18interprocess_mutexELb0EEclIJEEEPSB_DpOT_,"axG",@progbits,_ZNK5boost12interprocess9ipcdetail11named_proxyINS0_15segment_managerIcNS0_15rbtree_best_fitINS0_12mutex_familyENS0_10offset_ptrIvlmLm0EEELm0EEENS0_10iset_indexEEENS0_18interprocess_mutexELb0EEclIJEEEPSB_DpOT_,comdat
	.weak	_ZNK5boost12interprocess9ipcdetail11named_proxyINS0_15segment_managerIcNS0_15rbtree_best_fitINS0_12mutex_familyENS0_10offset_ptrIvlmLm0EEELm0EEENS0_10iset_indexEEENS0_18interprocess_mutexELb0EEclIJEEEPSB_DpOT_ # -- Begin function _ZNK5boost12interprocess9ipcdetail11named_proxyINS0_15segment_managerIcNS0_15rbtree_best_fitINS0_12mutex_familyENS0_10offset_ptrIvlmLm0EEELm0EEENS0_10iset_indexEEENS0_18interprocess_mutexELb0EEclIJEEEPSB_DpOT_
	.p2align	4, 0x90
	.type	_ZNK5boost12interprocess9ipcdetail11named_proxyINS0_15segment_managerIcNS0_15rbtree_best_fitINS0_12mutex_familyENS0_10offset_ptrIvlmLm0EEELm0EEENS0_10iset_indexEEENS0_18interprocess_mutexELb0EEclIJEEEPSB_DpOT_,@function
_ZNK5boost12interprocess9ipcdetail11named_proxyINS0_15segment_managerIcNS0_15rbtree_best_fitINS0_12mutex_familyENS0_10offset_ptrIvlmLm0EEELm0EEENS0_10iset_indexEEENS0_18interprocess_mutexELb0EEclIJEEEPSB_DpOT_: # @_ZNK5boost12interprocess9ipcdetail11named_proxyINS0_15segment_managerIcNS0_15rbtree_best_fitINS0_12mutex_familyENS0_10offset_ptrIvlmLm0EEELm0EEENS0_10iset_indexEEENS0_18interprocess_mutexELb0EEclIJEEEPSB_DpOT_
.Lfunc_begin15:
	.cfi_startproc
	.cfi_personality 3, __gxx_personality_v0
	.cfi_lsda 3, .Lexception15
# %bb.0:
	pushq	%rbp
	.cfi_def_cfa_offset 16
	.cfi_offset %rbp, -16
	movq	%rsp, %rbp
	.cfi_def_cfa_register %rbp
	subq	$96, %rsp
	movq	%rdi, -8(%rbp)
	movq	-8(%rbp), %rax
	leaq	-56(%rbp), %rcx
	movq	%rcx, %rdi
	movq	%rax, -80(%rbp)         # 8-byte Spill
	movq	%rcx, -88(%rbp)         # 8-byte Spill
	callq	_ZN5boost12interprocess9ipcdetail8CtorArgNINS0_18interprocess_mutexELb0EJEEC2Ev
	movq	-88(%rbp), %rax         # 8-byte Reload
	movq	%rax, -16(%rbp)
	movq	-80(%rbp), %rcx         # 8-byte Reload
	movq	(%rcx), %rsi
	movq	8(%rcx), %rdi
	movq	16(%rcx), %rdx
	movq	-16(%rbp), %r9
	movzbl	25(%rcx), %r8d
	movzbl	24(%rcx), %r10d
.Ltmp102:
	andl	$1, %r10d
	andl	$1, %r8d
	movl	%r10d, %ecx
	callq	_ZN5boost12interprocess15segment_managerIcNS0_15rbtree_best_fitINS0_12mutex_familyENS0_10offset_ptrIvlmLm0EEELm0EEENS0_10iset_indexEE17generic_constructINS0_18interprocess_mutexEEEPT_PKcmbbRNS0_9ipcdetail18in_place_interfaceE
.Ltmp103:
	movq	%rax, -96(%rbp)         # 8-byte Spill
	jmp	.LBB64_1
.LBB64_1:
	leaq	-56(%rbp), %rdi
	callq	_ZN5boost12interprocess9ipcdetail8CtorArgNINS0_18interprocess_mutexELb0EJEED2Ev
	movq	-96(%rbp), %rax         # 8-byte Reload
	addq	$96, %rsp
	popq	%rbp
	.cfi_def_cfa %rsp, 8
	retq
.LBB64_2:
	.cfi_def_cfa %rbp, 16
.Ltmp104:
                                        # kill: def $edx killed $edx killed $rdx
	movq	%rax, -64(%rbp)
	movl	%edx, -68(%rbp)
	leaq	-56(%rbp), %rdi
	callq	_ZN5boost12interprocess9ipcdetail8CtorArgNINS0_18interprocess_mutexELb0EJEED2Ev
# %bb.3:
	movq	-64(%rbp), %rdi
	callq	_Unwind_Resume
.Lfunc_end64:
	.size	_ZNK5boost12interprocess9ipcdetail11named_proxyINS0_15segment_managerIcNS0_15rbtree_best_fitINS0_12mutex_familyENS0_10offset_ptrIvlmLm0EEELm0EEENS0_10iset_indexEEENS0_18interprocess_mutexELb0EEclIJEEEPSB_DpOT_, .Lfunc_end64-_ZNK5boost12interprocess9ipcdetail11named_proxyINS0_15segment_managerIcNS0_15rbtree_best_fitINS0_12mutex_familyENS0_10offset_ptrIvlmLm0EEELm0EEENS0_10iset_indexEEENS0_18interprocess_mutexELb0EEclIJEEEPSB_DpOT_
	.cfi_endproc
	.section	.gcc_except_table,"a",@progbits
	.p2align	2
GCC_except_table64:
.Lexception15:
	.byte	255                     # @LPStart Encoding = omit
	.byte	255                     # @TType Encoding = omit
	.byte	1                       # Call site Encoding = uleb128
	.uleb128 .Lcst_end15-.Lcst_begin15
.Lcst_begin15:
	.uleb128 .Lfunc_begin15-.Lfunc_begin15 # >> Call Site 1 <<
	.uleb128 .Ltmp102-.Lfunc_begin15 #   Call between .Lfunc_begin15 and .Ltmp102
	.byte	0                       #     has no landing pad
	.byte	0                       #   On action: cleanup
	.uleb128 .Ltmp102-.Lfunc_begin15 # >> Call Site 2 <<
	.uleb128 .Ltmp103-.Ltmp102      #   Call between .Ltmp102 and .Ltmp103
	.uleb128 .Ltmp104-.Lfunc_begin15 #     jumps to .Ltmp104
	.byte	0                       #   On action: cleanup
	.uleb128 .Ltmp103-.Lfunc_begin15 # >> Call Site 3 <<
	.uleb128 .Lfunc_end64-.Ltmp103  #   Call between .Ltmp103 and .Lfunc_end64
	.byte	0                       #     has no landing pad
	.byte	0                       #   On action: cleanup
.Lcst_end15:
	.p2align	2
                                        # -- End function
	.section	.text._ZN5boost12interprocess18interprocess_mutex4lockEv,"axG",@progbits,_ZN5boost12interprocess18interprocess_mutex4lockEv,comdat
	.weak	_ZN5boost12interprocess18interprocess_mutex4lockEv # -- Begin function _ZN5boost12interprocess18interprocess_mutex4lockEv
	.p2align	4, 0x90
	.type	_ZN5boost12interprocess18interprocess_mutex4lockEv,@function
_ZN5boost12interprocess18interprocess_mutex4lockEv: # @_ZN5boost12interprocess18interprocess_mutex4lockEv
	.cfi_startproc
# %bb.0:
	pushq	%rbp
	.cfi_def_cfa_offset 16
	.cfi_offset %rbp, -16
	movq	%rsp, %rbp
	.cfi_def_cfa_register %rbp
	subq	$16, %rsp
	movq	%rdi, -8(%rbp)
	movq	-8(%rbp), %rdi
	callq	_ZN5boost12interprocess9ipcdetail11posix_mutex4lockEv
	addq	$16, %rsp
	popq	%rbp
	.cfi_def_cfa %rsp, 8
	retq
.Lfunc_end65:
	.size	_ZN5boost12interprocess18interprocess_mutex4lockEv, .Lfunc_end65-_ZN5boost12interprocess18interprocess_mutex4lockEv
	.cfi_endproc
                                        # -- End function
	.section	.text._ZNK5boost9container6vectorI8mem_infoNS_12interprocess9allocatorIS2_NS3_15segment_managerIcNS3_15rbtree_best_fitINS3_12mutex_familyENS3_10offset_ptrIvlmLm0EEELm0EEENS3_10iset_indexEEEEEvE4sizeEv,"axG",@progbits,_ZNK5boost9container6vectorI8mem_infoNS_12interprocess9allocatorIS2_NS3_15segment_managerIcNS3_15rbtree_best_fitINS3_12mutex_familyENS3_10offset_ptrIvlmLm0EEELm0EEENS3_10iset_indexEEEEEvE4sizeEv,comdat
	.weak	_ZNK5boost9container6vectorI8mem_infoNS_12interprocess9allocatorIS2_NS3_15segment_managerIcNS3_15rbtree_best_fitINS3_12mutex_familyENS3_10offset_ptrIvlmLm0EEELm0EEENS3_10iset_indexEEEEEvE4sizeEv # -- Begin function _ZNK5boost9container6vectorI8mem_infoNS_12interprocess9allocatorIS2_NS3_15segment_managerIcNS3_15rbtree_best_fitINS3_12mutex_familyENS3_10offset_ptrIvlmLm0EEELm0EEENS3_10iset_indexEEEEEvE4sizeEv
	.p2align	4, 0x90
	.type	_ZNK5boost9container6vectorI8mem_infoNS_12interprocess9allocatorIS2_NS3_15segment_managerIcNS3_15rbtree_best_fitINS3_12mutex_familyENS3_10offset_ptrIvlmLm0EEELm0EEENS3_10iset_indexEEEEEvE4sizeEv,@function
_ZNK5boost9container6vectorI8mem_infoNS_12interprocess9allocatorIS2_NS3_15segment_managerIcNS3_15rbtree_best_fitINS3_12mutex_familyENS3_10offset_ptrIvlmLm0EEELm0EEENS3_10iset_indexEEEEEvE4sizeEv: # @_ZNK5boost9container6vectorI8mem_infoNS_12interprocess9allocatorIS2_NS3_15segment_managerIcNS3_15rbtree_best_fitINS3_12mutex_familyENS3_10offset_ptrIvlmLm0EEELm0EEENS3_10iset_indexEEEEEvE4sizeEv
	.cfi_startproc
# %bb.0:
	pushq	%rbp
	.cfi_def_cfa_offset 16
	.cfi_offset %rbp, -16
	movq	%rsp, %rbp
	.cfi_def_cfa_register %rbp
	movq	%rdi, -8(%rbp)
	movq	-8(%rbp), %rax
	movq	16(%rax), %rax
	popq	%rbp
	.cfi_def_cfa %rsp, 8
	retq
.Lfunc_end66:
	.size	_ZNK5boost9container6vectorI8mem_infoNS_12interprocess9allocatorIS2_NS3_15segment_managerIcNS3_15rbtree_best_fitINS3_12mutex_familyENS3_10offset_ptrIvlmLm0EEELm0EEENS3_10iset_indexEEEEEvE4sizeEv, .Lfunc_end66-_ZNK5boost9container6vectorI8mem_infoNS_12interprocess9allocatorIS2_NS3_15segment_managerIcNS3_15rbtree_best_fitINS3_12mutex_familyENS3_10offset_ptrIvlmLm0EEELm0EEENS3_10iset_indexEEEEEvE4sizeEv
	.cfi_endproc
                                        # -- End function
	.section	.text._ZN5boost9container6vectorI8mem_infoNS_12interprocess9allocatorIS2_NS3_15segment_managerIcNS3_15rbtree_best_fitINS3_12mutex_familyENS3_10offset_ptrIvlmLm0EEELm0EEENS3_10iset_indexEEEEEvE9push_backERKS2_,"axG",@progbits,_ZN5boost9container6vectorI8mem_infoNS_12interprocess9allocatorIS2_NS3_15segment_managerIcNS3_15rbtree_best_fitINS3_12mutex_familyENS3_10offset_ptrIvlmLm0EEELm0EEENS3_10iset_indexEEEEEvE9push_backERKS2_,comdat
	.weak	_ZN5boost9container6vectorI8mem_infoNS_12interprocess9allocatorIS2_NS3_15segment_managerIcNS3_15rbtree_best_fitINS3_12mutex_familyENS3_10offset_ptrIvlmLm0EEELm0EEENS3_10iset_indexEEEEEvE9push_backERKS2_ # -- Begin function _ZN5boost9container6vectorI8mem_infoNS_12interprocess9allocatorIS2_NS3_15segment_managerIcNS3_15rbtree_best_fitINS3_12mutex_familyENS3_10offset_ptrIvlmLm0EEELm0EEENS3_10iset_indexEEEEEvE9push_backERKS2_
	.p2align	4, 0x90
	.type	_ZN5boost9container6vectorI8mem_infoNS_12interprocess9allocatorIS2_NS3_15segment_managerIcNS3_15rbtree_best_fitINS3_12mutex_familyENS3_10offset_ptrIvlmLm0EEELm0EEENS3_10iset_indexEEEEEvE9push_backERKS2_,@function
_ZN5boost9container6vectorI8mem_infoNS_12interprocess9allocatorIS2_NS3_15segment_managerIcNS3_15rbtree_best_fitINS3_12mutex_familyENS3_10offset_ptrIvlmLm0EEELm0EEENS3_10iset_indexEEEEEvE9push_backERKS2_: # @_ZN5boost9container6vectorI8mem_infoNS_12interprocess9allocatorIS2_NS3_15segment_managerIcNS3_15rbtree_best_fitINS3_12mutex_familyENS3_10offset_ptrIvlmLm0EEELm0EEENS3_10iset_indexEEEEEvE9push_backERKS2_
	.cfi_startproc
# %bb.0:
	pushq	%rbp
	.cfi_def_cfa_offset 16
	.cfi_offset %rbp, -16
	movq	%rsp, %rbp
	.cfi_def_cfa_register %rbp
	subq	$16, %rsp
	movq	%rdi, -8(%rbp)
	movq	%rsi, -16(%rbp)
	movq	-8(%rbp), %rdi
	movq	-16(%rbp), %rsi
	callq	_ZN5boost9container6vectorI8mem_infoNS_12interprocess9allocatorIS2_NS3_15segment_managerIcNS3_15rbtree_best_fitINS3_12mutex_familyENS3_10offset_ptrIvlmLm0EEELm0EEENS3_10iset_indexEEEEEvE14priv_push_backIRKS2_EEvOT_
	addq	$16, %rsp
	popq	%rbp
	.cfi_def_cfa %rsp, 8
	retq
.Lfunc_end67:
	.size	_ZN5boost9container6vectorI8mem_infoNS_12interprocess9allocatorIS2_NS3_15segment_managerIcNS3_15rbtree_best_fitINS3_12mutex_familyENS3_10offset_ptrIvlmLm0EEELm0EEENS3_10iset_indexEEEEEvE9push_backERKS2_, .Lfunc_end67-_ZN5boost9container6vectorI8mem_infoNS_12interprocess9allocatorIS2_NS3_15segment_managerIcNS3_15rbtree_best_fitINS3_12mutex_familyENS3_10offset_ptrIvlmLm0EEELm0EEENS3_10iset_indexEEEEEvE9push_backERKS2_
	.cfi_endproc
                                        # -- End function
	.section	.text._ZN5boost12interprocess18interprocess_mutex6unlockEv,"axG",@progbits,_ZN5boost12interprocess18interprocess_mutex6unlockEv,comdat
	.weak	_ZN5boost12interprocess18interprocess_mutex6unlockEv # -- Begin function _ZN5boost12interprocess18interprocess_mutex6unlockEv
	.p2align	4, 0x90
	.type	_ZN5boost12interprocess18interprocess_mutex6unlockEv,@function
_ZN5boost12interprocess18interprocess_mutex6unlockEv: # @_ZN5boost12interprocess18interprocess_mutex6unlockEv
	.cfi_startproc
# %bb.0:
	pushq	%rbp
	.cfi_def_cfa_offset 16
	.cfi_offset %rbp, -16
	movq	%rsp, %rbp
	.cfi_def_cfa_register %rbp
	subq	$16, %rsp
	movq	%rdi, -8(%rbp)
	movq	-8(%rbp), %rdi
	callq	_ZN5boost12interprocess9ipcdetail11posix_mutex6unlockEv
	addq	$16, %rsp
	popq	%rbp
	.cfi_def_cfa %rsp, 8
	retq
.Lfunc_end68:
	.size	_ZN5boost12interprocess18interprocess_mutex6unlockEv, .Lfunc_end68-_ZN5boost12interprocess18interprocess_mutex6unlockEv
	.cfi_endproc
                                        # -- End function
	.section	.text._ZN5boost12interprocess11permissions11set_defaultEv,"axG",@progbits,_ZN5boost12interprocess11permissions11set_defaultEv,comdat
	.weak	_ZN5boost12interprocess11permissions11set_defaultEv # -- Begin function _ZN5boost12interprocess11permissions11set_defaultEv
	.p2align	4, 0x90
	.type	_ZN5boost12interprocess11permissions11set_defaultEv,@function
_ZN5boost12interprocess11permissions11set_defaultEv: # @_ZN5boost12interprocess11permissions11set_defaultEv
	.cfi_startproc
# %bb.0:
	pushq	%rbp
	.cfi_def_cfa_offset 16
	.cfi_offset %rbp, -16
	movq	%rsp, %rbp
	.cfi_def_cfa_register %rbp
	movq	%rdi, -8(%rbp)
	movq	-8(%rbp), %rax
	movl	$420, (%rax)            # imm = 0x1A4
	popq	%rbp
	.cfi_def_cfa %rsp, 8
	retq
.Lfunc_end69:
	.size	_ZN5boost12interprocess11permissions11set_defaultEv, .Lfunc_end69-_ZN5boost12interprocess11permissions11set_defaultEv
	.cfi_endproc
                                        # -- End function
	.section	.text._ZN5boost12interprocess9ipcdetail25basic_managed_memory_implIcNS0_15rbtree_best_fitINS0_12mutex_familyENS0_10offset_ptrIvlmLm0EEELm0EEENS0_10iset_indexELm16EEC2Ev,"axG",@progbits,_ZN5boost12interprocess9ipcdetail25basic_managed_memory_implIcNS0_15rbtree_best_fitINS0_12mutex_familyENS0_10offset_ptrIvlmLm0EEELm0EEENS0_10iset_indexELm16EEC2Ev,comdat
	.weak	_ZN5boost12interprocess9ipcdetail25basic_managed_memory_implIcNS0_15rbtree_best_fitINS0_12mutex_familyENS0_10offset_ptrIvlmLm0EEELm0EEENS0_10iset_indexELm16EEC2Ev # -- Begin function _ZN5boost12interprocess9ipcdetail25basic_managed_memory_implIcNS0_15rbtree_best_fitINS0_12mutex_familyENS0_10offset_ptrIvlmLm0EEELm0EEENS0_10iset_indexELm16EEC2Ev
	.p2align	4, 0x90
	.type	_ZN5boost12interprocess9ipcdetail25basic_managed_memory_implIcNS0_15rbtree_best_fitINS0_12mutex_familyENS0_10offset_ptrIvlmLm0EEELm0EEENS0_10iset_indexELm16EEC2Ev,@function
_ZN5boost12interprocess9ipcdetail25basic_managed_memory_implIcNS0_15rbtree_best_fitINS0_12mutex_familyENS0_10offset_ptrIvlmLm0EEELm0EEENS0_10iset_indexELm16EEC2Ev: # @_ZN5boost12interprocess9ipcdetail25basic_managed_memory_implIcNS0_15rbtree_best_fitINS0_12mutex_familyENS0_10offset_ptrIvlmLm0EEELm0EEENS0_10iset_indexELm16EEC2Ev
	.cfi_startproc
# %bb.0:
	pushq	%rbp
	.cfi_def_cfa_offset 16
	.cfi_offset %rbp, -16
	movq	%rsp, %rbp
	.cfi_def_cfa_register %rbp
	movq	%rdi, -8(%rbp)
	movq	-8(%rbp), %rax
	movq	$0, (%rax)
	popq	%rbp
	.cfi_def_cfa %rsp, 8
	retq
.Lfunc_end70:
	.size	_ZN5boost12interprocess9ipcdetail25basic_managed_memory_implIcNS0_15rbtree_best_fitINS0_12mutex_familyENS0_10offset_ptrIvlmLm0EEELm0EEENS0_10iset_indexELm16EEC2Ev, .Lfunc_end70-_ZN5boost12interprocess9ipcdetail25basic_managed_memory_implIcNS0_15rbtree_best_fitINS0_12mutex_familyENS0_10offset_ptrIvlmLm0EEELm0EEENS0_10iset_indexELm16EEC2Ev
	.cfi_endproc
                                        # -- End function
	.section	.text._ZN5boost12interprocess27basic_managed_shared_memoryIcNS0_15rbtree_best_fitINS0_12mutex_familyENS0_10offset_ptrIvlmLm0EEELm0EEENS0_10iset_indexEE16get_this_pointerEv,"axG",@progbits,_ZN5boost12interprocess27basic_managed_shared_memoryIcNS0_15rbtree_best_fitINS0_12mutex_familyENS0_10offset_ptrIvlmLm0EEELm0EEENS0_10iset_indexEE16get_this_pointerEv,comdat
	.weak	_ZN5boost12interprocess27basic_managed_shared_memoryIcNS0_15rbtree_best_fitINS0_12mutex_familyENS0_10offset_ptrIvlmLm0EEELm0EEENS0_10iset_indexEE16get_this_pointerEv # -- Begin function _ZN5boost12interprocess27basic_managed_shared_memoryIcNS0_15rbtree_best_fitINS0_12mutex_familyENS0_10offset_ptrIvlmLm0EEELm0EEENS0_10iset_indexEE16get_this_pointerEv
	.p2align	4, 0x90
	.type	_ZN5boost12interprocess27basic_managed_shared_memoryIcNS0_15rbtree_best_fitINS0_12mutex_familyENS0_10offset_ptrIvlmLm0EEELm0EEENS0_10iset_indexEE16get_this_pointerEv,@function
_ZN5boost12interprocess27basic_managed_shared_memoryIcNS0_15rbtree_best_fitINS0_12mutex_familyENS0_10offset_ptrIvlmLm0EEELm0EEENS0_10iset_indexEE16get_this_pointerEv: # @_ZN5boost12interprocess27basic_managed_shared_memoryIcNS0_15rbtree_best_fitINS0_12mutex_familyENS0_10offset_ptrIvlmLm0EEELm0EEENS0_10iset_indexEE16get_this_pointerEv
	.cfi_startproc
# %bb.0:
	pushq	%rbp
	.cfi_def_cfa_offset 16
	.cfi_offset %rbp, -16
	movq	%rsp, %rbp
	.cfi_def_cfa_register %rbp
	movq	%rdi, -8(%rbp)
	movq	-8(%rbp), %rax
	popq	%rbp
	.cfi_def_cfa %rsp, 8
	retq
.Lfunc_end71:
	.size	_ZN5boost12interprocess27basic_managed_shared_memoryIcNS0_15rbtree_best_fitINS0_12mutex_familyENS0_10offset_ptrIvlmLm0EEELm0EEENS0_10iset_indexEE16get_this_pointerEv, .Lfunc_end71-_ZN5boost12interprocess27basic_managed_shared_memoryIcNS0_15rbtree_best_fitINS0_12mutex_familyENS0_10offset_ptrIvlmLm0EEELm0EEENS0_10iset_indexEE16get_this_pointerEv
	.cfi_endproc
                                        # -- End function
	.section	.text._ZN5boost12interprocess9ipcdetail16create_open_funcINS1_25basic_managed_memory_implIcNS0_15rbtree_best_fitINS0_12mutex_familyENS0_10offset_ptrIvlmLm0EEELm0EEENS0_10iset_indexELm16EEEEC2EPSA_NS1_13create_enum_tE,"axG",@progbits,_ZN5boost12interprocess9ipcdetail16create_open_funcINS1_25basic_managed_memory_implIcNS0_15rbtree_best_fitINS0_12mutex_familyENS0_10offset_ptrIvlmLm0EEELm0EEENS0_10iset_indexELm16EEEEC2EPSA_NS1_13create_enum_tE,comdat
	.weak	_ZN5boost12interprocess9ipcdetail16create_open_funcINS1_25basic_managed_memory_implIcNS0_15rbtree_best_fitINS0_12mutex_familyENS0_10offset_ptrIvlmLm0EEELm0EEENS0_10iset_indexELm16EEEEC2EPSA_NS1_13create_enum_tE # -- Begin function _ZN5boost12interprocess9ipcdetail16create_open_funcINS1_25basic_managed_memory_implIcNS0_15rbtree_best_fitINS0_12mutex_familyENS0_10offset_ptrIvlmLm0EEELm0EEENS0_10iset_indexELm16EEEEC2EPSA_NS1_13create_enum_tE
	.p2align	4, 0x90
	.type	_ZN5boost12interprocess9ipcdetail16create_open_funcINS1_25basic_managed_memory_implIcNS0_15rbtree_best_fitINS0_12mutex_familyENS0_10offset_ptrIvlmLm0EEELm0EEENS0_10iset_indexELm16EEEEC2EPSA_NS1_13create_enum_tE,@function
_ZN5boost12interprocess9ipcdetail16create_open_funcINS1_25basic_managed_memory_implIcNS0_15rbtree_best_fitINS0_12mutex_familyENS0_10offset_ptrIvlmLm0EEELm0EEENS0_10iset_indexELm16EEEEC2EPSA_NS1_13create_enum_tE: # @_ZN5boost12interprocess9ipcdetail16create_open_funcINS1_25basic_managed_memory_implIcNS0_15rbtree_best_fitINS0_12mutex_familyENS0_10offset_ptrIvlmLm0EEELm0EEENS0_10iset_indexELm16EEEEC2EPSA_NS1_13create_enum_tE
	.cfi_startproc
# %bb.0:
	pushq	%rbp
	.cfi_def_cfa_offset 16
	.cfi_offset %rbp, -16
	movq	%rsp, %rbp
	.cfi_def_cfa_register %rbp
	movq	%rdi, -8(%rbp)
	movq	%rsi, -16(%rbp)
	movl	%edx, -20(%rbp)
	movq	-8(%rbp), %rax
	movq	-16(%rbp), %rcx
	movq	%rcx, (%rax)
	movl	-20(%rbp), %edx
	movl	%edx, 8(%rax)
	popq	%rbp
	.cfi_def_cfa %rsp, 8
	retq
.Lfunc_end72:
	.size	_ZN5boost12interprocess9ipcdetail16create_open_funcINS1_25basic_managed_memory_implIcNS0_15rbtree_best_fitINS0_12mutex_familyENS0_10offset_ptrIvlmLm0EEELm0EEENS0_10iset_indexELm16EEEEC2EPSA_NS1_13create_enum_tE, .Lfunc_end72-_ZN5boost12interprocess9ipcdetail16create_open_funcINS1_25basic_managed_memory_implIcNS0_15rbtree_best_fitINS0_12mutex_familyENS0_10offset_ptrIvlmLm0EEELm0EEENS0_10iset_indexELm16EEEEC2EPSA_NS1_13create_enum_tE
	.cfi_endproc
                                        # -- End function
	.section	.text._ZN5boost12interprocess9ipcdetail27managed_open_or_create_implINS0_20shared_memory_objectELm16ELb1ELb0EEC2INS1_16create_open_funcINS1_25basic_managed_memory_implIcNS0_15rbtree_best_fitINS0_12mutex_familyENS0_10offset_ptrIvlmLm0EEELm0EEENS0_10iset_indexELm16EEEEEEENS0_16open_or_create_tERKPKcmNS0_6mode_tEPKvRKT_RKNS0_11permissionsE,"axG",@progbits,_ZN5boost12interprocess9ipcdetail27managed_open_or_create_implINS0_20shared_memory_objectELm16ELb1ELb0EEC2INS1_16create_open_funcINS1_25basic_managed_memory_implIcNS0_15rbtree_best_fitINS0_12mutex_familyENS0_10offset_ptrIvlmLm0EEELm0EEENS0_10iset_indexELm16EEEEEEENS0_16open_or_create_tERKPKcmNS0_6mode_tEPKvRKT_RKNS0_11permissionsE,comdat
	.weak	_ZN5boost12interprocess9ipcdetail27managed_open_or_create_implINS0_20shared_memory_objectELm16ELb1ELb0EEC2INS1_16create_open_funcINS1_25basic_managed_memory_implIcNS0_15rbtree_best_fitINS0_12mutex_familyENS0_10offset_ptrIvlmLm0EEELm0EEENS0_10iset_indexELm16EEEEEEENS0_16open_or_create_tERKPKcmNS0_6mode_tEPKvRKT_RKNS0_11permissionsE # -- Begin function _ZN5boost12interprocess9ipcdetail27managed_open_or_create_implINS0_20shared_memory_objectELm16ELb1ELb0EEC2INS1_16create_open_funcINS1_25basic_managed_memory_implIcNS0_15rbtree_best_fitINS0_12mutex_familyENS0_10offset_ptrIvlmLm0EEELm0EEENS0_10iset_indexELm16EEEEEEENS0_16open_or_create_tERKPKcmNS0_6mode_tEPKvRKT_RKNS0_11permissionsE
	.p2align	4, 0x90
	.type	_ZN5boost12interprocess9ipcdetail27managed_open_or_create_implINS0_20shared_memory_objectELm16ELb1ELb0EEC2INS1_16create_open_funcINS1_25basic_managed_memory_implIcNS0_15rbtree_best_fitINS0_12mutex_familyENS0_10offset_ptrIvlmLm0EEELm0EEENS0_10iset_indexELm16EEEEEEENS0_16open_or_create_tERKPKcmNS0_6mode_tEPKvRKT_RKNS0_11permissionsE,@function
_ZN5boost12interprocess9ipcdetail27managed_open_or_create_implINS0_20shared_memory_objectELm16ELb1ELb0EEC2INS1_16create_open_funcINS1_25basic_managed_memory_implIcNS0_15rbtree_best_fitINS0_12mutex_familyENS0_10offset_ptrIvlmLm0EEELm0EEENS0_10iset_indexELm16EEEEEEENS0_16open_or_create_tERKPKcmNS0_6mode_tEPKvRKT_RKNS0_11permissionsE: # @_ZN5boost12interprocess9ipcdetail27managed_open_or_create_implINS0_20shared_memory_objectELm16ELb1ELb0EEC2INS1_16create_open_funcINS1_25basic_managed_memory_implIcNS0_15rbtree_best_fitINS0_12mutex_familyENS0_10offset_ptrIvlmLm0EEELm0EEENS0_10iset_indexELm16EEEEEEENS0_16open_or_create_tERKPKcmNS0_6mode_tEPKvRKT_RKNS0_11permissionsE
.Lfunc_begin16:
	.cfi_startproc
	.cfi_personality 3, __gxx_personality_v0
	.cfi_lsda 3, .Lexception16
# %bb.0:
	pushq	%rbp
	.cfi_def_cfa_offset 16
	.cfi_offset %rbp, -16
	movq	%rsp, %rbp
	.cfi_def_cfa_register %rbp
	subq	$144, %rsp
	movq	16(%rbp), %rax
	movq	%rdi, -16(%rbp)
	movq	%rsi, -24(%rbp)
	movq	%rdx, -32(%rbp)
	movl	%ecx, -36(%rbp)
	movq	%r8, -48(%rbp)
	movq	%r9, -56(%rbp)
	movq	-16(%rbp), %rdx
	movq	%rdx, %rdi
	movq	%rax, -104(%rbp)        # 8-byte Spill
	movq	%rdx, -112(%rbp)        # 8-byte Spill
	callq	_ZN5boost12interprocess13mapped_regionC2Ev
	movq	-24(%rbp), %rdx
	movq	-32(%rbp), %rcx
	movl	-36(%rbp), %r8d
	movq	-48(%rbp), %r9
	movq	16(%rbp), %rax
	movq	-56(%rbp), %rsi
	movups	(%rsi), %xmm0
	movaps	%xmm0, -80(%rbp)
.Ltmp105:
	movaps	-80(%rbp), %xmm0
	movq	%rsp, %rsi
	movups	%xmm0, 8(%rsi)
	movq	%rax, (%rsi)
	movl	$2, %esi
	movq	-112(%rbp), %rdi        # 8-byte Reload
	callq	_ZN5boost12interprocess9ipcdetail27managed_open_or_create_implINS0_20shared_memory_objectELm16ELb1ELb0EE19priv_open_or_createINS1_16create_open_funcINS1_25basic_managed_memory_implIcNS0_15rbtree_best_fitINS0_12mutex_familyENS0_10offset_ptrIvlmLm0EEELm0EEENS0_10iset_indexELm16EEEEEEEvNS1_13create_enum_tERKPKcmNS0_6mode_tEPKvRKNS0_11permissionsET_
.Ltmp106:
	jmp	.LBB73_1
.LBB73_1:
	addq	$144, %rsp
	popq	%rbp
	.cfi_def_cfa %rsp, 8
	retq
.LBB73_2:
	.cfi_def_cfa %rbp, 16
.Ltmp107:
                                        # kill: def $edx killed $edx killed $rdx
	movq	%rax, -88(%rbp)
	movl	%edx, -92(%rbp)
	movq	-112(%rbp), %rdi        # 8-byte Reload
	callq	_ZN5boost12interprocess13mapped_regionD2Ev
# %bb.3:
	movq	-88(%rbp), %rdi
	callq	_Unwind_Resume
.Lfunc_end73:
	.size	_ZN5boost12interprocess9ipcdetail27managed_open_or_create_implINS0_20shared_memory_objectELm16ELb1ELb0EEC2INS1_16create_open_funcINS1_25basic_managed_memory_implIcNS0_15rbtree_best_fitINS0_12mutex_familyENS0_10offset_ptrIvlmLm0EEELm0EEENS0_10iset_indexELm16EEEEEEENS0_16open_or_create_tERKPKcmNS0_6mode_tEPKvRKT_RKNS0_11permissionsE, .Lfunc_end73-_ZN5boost12interprocess9ipcdetail27managed_open_or_create_implINS0_20shared_memory_objectELm16ELb1ELb0EEC2INS1_16create_open_funcINS1_25basic_managed_memory_implIcNS0_15rbtree_best_fitINS0_12mutex_familyENS0_10offset_ptrIvlmLm0EEELm0EEENS0_10iset_indexELm16EEEEEEENS0_16open_or_create_tERKPKcmNS0_6mode_tEPKvRKT_RKNS0_11permissionsE
	.cfi_endproc
	.section	.gcc_except_table,"a",@progbits
	.p2align	2
GCC_except_table73:
.Lexception16:
	.byte	255                     # @LPStart Encoding = omit
	.byte	255                     # @TType Encoding = omit
	.byte	1                       # Call site Encoding = uleb128
	.uleb128 .Lcst_end16-.Lcst_begin16
.Lcst_begin16:
	.uleb128 .Ltmp105-.Lfunc_begin16 # >> Call Site 1 <<
	.uleb128 .Ltmp106-.Ltmp105      #   Call between .Ltmp105 and .Ltmp106
	.uleb128 .Ltmp107-.Lfunc_begin16 #     jumps to .Ltmp107
	.byte	0                       #   On action: cleanup
	.uleb128 .Ltmp106-.Lfunc_begin16 # >> Call Site 2 <<
	.uleb128 .Lfunc_end73-.Ltmp106  #   Call between .Ltmp106 and .Lfunc_end73
	.byte	0                       #     has no landing pad
	.byte	0                       #   On action: cleanup
.Lcst_end16:
	.p2align	2
                                        # -- End function
	.section	.text._ZN5boost12interprocess9ipcdetail25basic_managed_memory_implIcNS0_15rbtree_best_fitINS0_12mutex_familyENS0_10offset_ptrIvlmLm0EEELm0EEENS0_10iset_indexELm16EED2Ev,"axG",@progbits,_ZN5boost12interprocess9ipcdetail25basic_managed_memory_implIcNS0_15rbtree_best_fitINS0_12mutex_familyENS0_10offset_ptrIvlmLm0EEELm0EEENS0_10iset_indexELm16EED2Ev,comdat
	.weak	_ZN5boost12interprocess9ipcdetail25basic_managed_memory_implIcNS0_15rbtree_best_fitINS0_12mutex_familyENS0_10offset_ptrIvlmLm0EEELm0EEENS0_10iset_indexELm16EED2Ev # -- Begin function _ZN5boost12interprocess9ipcdetail25basic_managed_memory_implIcNS0_15rbtree_best_fitINS0_12mutex_familyENS0_10offset_ptrIvlmLm0EEELm0EEENS0_10iset_indexELm16EED2Ev
	.p2align	4, 0x90
	.type	_ZN5boost12interprocess9ipcdetail25basic_managed_memory_implIcNS0_15rbtree_best_fitINS0_12mutex_familyENS0_10offset_ptrIvlmLm0EEELm0EEENS0_10iset_indexELm16EED2Ev,@function
_ZN5boost12interprocess9ipcdetail25basic_managed_memory_implIcNS0_15rbtree_best_fitINS0_12mutex_familyENS0_10offset_ptrIvlmLm0EEELm0EEENS0_10iset_indexELm16EED2Ev: # @_ZN5boost12interprocess9ipcdetail25basic_managed_memory_implIcNS0_15rbtree_best_fitINS0_12mutex_familyENS0_10offset_ptrIvlmLm0EEELm0EEENS0_10iset_indexELm16EED2Ev
.Lfunc_begin17:
	.cfi_startproc
	.cfi_personality 3, __gxx_personality_v0
	.cfi_lsda 3, .Lexception17
# %bb.0:
	pushq	%rbp
	.cfi_def_cfa_offset 16
	.cfi_offset %rbp, -16
	movq	%rsp, %rbp
	.cfi_def_cfa_register %rbp
	subq	$16, %rsp
	movq	%rdi, -8(%rbp)
	movq	-8(%rbp), %rdi
.Ltmp108:
	callq	_ZN5boost12interprocess9ipcdetail25basic_managed_memory_implIcNS0_15rbtree_best_fitINS0_12mutex_familyENS0_10offset_ptrIvlmLm0EEELm0EEENS0_10iset_indexELm16EE10close_implEv
.Ltmp109:
	jmp	.LBB74_1
.LBB74_1:
	addq	$16, %rsp
	popq	%rbp
	.cfi_def_cfa %rsp, 8
	retq
.LBB74_2:
	.cfi_def_cfa %rbp, 16
.Ltmp110:
                                        # kill: def $edx killed $edx killed $rdx
	movq	%rax, %rdi
	movl	%edx, -12(%rbp)         # 4-byte Spill
	callq	__clang_call_terminate
.Lfunc_end74:
	.size	_ZN5boost12interprocess9ipcdetail25basic_managed_memory_implIcNS0_15rbtree_best_fitINS0_12mutex_familyENS0_10offset_ptrIvlmLm0EEELm0EEENS0_10iset_indexELm16EED2Ev, .Lfunc_end74-_ZN5boost12interprocess9ipcdetail25basic_managed_memory_implIcNS0_15rbtree_best_fitINS0_12mutex_familyENS0_10offset_ptrIvlmLm0EEELm0EEENS0_10iset_indexELm16EED2Ev
	.cfi_endproc
	.section	.gcc_except_table,"a",@progbits
	.p2align	2
GCC_except_table74:
.Lexception17:
	.byte	255                     # @LPStart Encoding = omit
	.byte	3                       # @TType Encoding = udata4
	.uleb128 .Lttbase4-.Lttbaseref4
.Lttbaseref4:
	.byte	1                       # Call site Encoding = uleb128
	.uleb128 .Lcst_end17-.Lcst_begin17
.Lcst_begin17:
	.uleb128 .Ltmp108-.Lfunc_begin17 # >> Call Site 1 <<
	.uleb128 .Ltmp109-.Ltmp108      #   Call between .Ltmp108 and .Ltmp109
	.uleb128 .Ltmp110-.Lfunc_begin17 #     jumps to .Ltmp110
	.byte	1                       #   On action: 1
.Lcst_end17:
	.byte	1                       # >> Action Record 1 <<
                                        #   Catch TypeInfo 1
	.byte	0                       #   No further actions
	.p2align	2
                                        # >> Catch TypeInfos <<
	.long	0                       # TypeInfo 1
.Lttbase4:
	.p2align	2
                                        # -- End function
	.section	.text._ZN5boost12interprocess13mapped_regionC2Ev,"axG",@progbits,_ZN5boost12interprocess13mapped_regionC2Ev,comdat
	.weak	_ZN5boost12interprocess13mapped_regionC2Ev # -- Begin function _ZN5boost12interprocess13mapped_regionC2Ev
	.p2align	4, 0x90
	.type	_ZN5boost12interprocess13mapped_regionC2Ev,@function
_ZN5boost12interprocess13mapped_regionC2Ev: # @_ZN5boost12interprocess13mapped_regionC2Ev
	.cfi_startproc
# %bb.0:
	pushq	%rbp
	.cfi_def_cfa_offset 16
	.cfi_offset %rbp, -16
	movq	%rsp, %rbp
	.cfi_def_cfa_register %rbp
	movq	%rdi, -8(%rbp)
	movq	-8(%rbp), %rax
	movq	$0, (%rax)
	movq	$0, 8(%rax)
	movq	$0, 16(%rax)
	movl	$0, 24(%rax)
	movb	$0, 28(%rax)
	popq	%rbp
	.cfi_def_cfa %rsp, 8
	retq
.Lfunc_end75:
	.size	_ZN5boost12interprocess13mapped_regionC2Ev, .Lfunc_end75-_ZN5boost12interprocess13mapped_regionC2Ev
	.cfi_endproc
                                        # -- End function
	.section	.text._ZN5boost12interprocess9ipcdetail27managed_open_or_create_implINS0_20shared_memory_objectELm16ELb1ELb0EE19priv_open_or_createINS1_16create_open_funcINS1_25basic_managed_memory_implIcNS0_15rbtree_best_fitINS0_12mutex_familyENS0_10offset_ptrIvlmLm0EEELm0EEENS0_10iset_indexELm16EEEEEEEvNS1_13create_enum_tERKPKcmNS0_6mode_tEPKvRKNS0_11permissionsET_,"axG",@progbits,_ZN5boost12interprocess9ipcdetail27managed_open_or_create_implINS0_20shared_memory_objectELm16ELb1ELb0EE19priv_open_or_createINS1_16create_open_funcINS1_25basic_managed_memory_implIcNS0_15rbtree_best_fitINS0_12mutex_familyENS0_10offset_ptrIvlmLm0EEELm0EEENS0_10iset_indexELm16EEEEEEEvNS1_13create_enum_tERKPKcmNS0_6mode_tEPKvRKNS0_11permissionsET_,comdat
	.weak	_ZN5boost12interprocess9ipcdetail27managed_open_or_create_implINS0_20shared_memory_objectELm16ELb1ELb0EE19priv_open_or_createINS1_16create_open_funcINS1_25basic_managed_memory_implIcNS0_15rbtree_best_fitINS0_12mutex_familyENS0_10offset_ptrIvlmLm0EEELm0EEENS0_10iset_indexELm16EEEEEEEvNS1_13create_enum_tERKPKcmNS0_6mode_tEPKvRKNS0_11permissionsET_ # -- Begin function _ZN5boost12interprocess9ipcdetail27managed_open_or_create_implINS0_20shared_memory_objectELm16ELb1ELb0EE19priv_open_or_createINS1_16create_open_funcINS1_25basic_managed_memory_implIcNS0_15rbtree_best_fitINS0_12mutex_familyENS0_10offset_ptrIvlmLm0EEELm0EEENS0_10iset_indexELm16EEEEEEEvNS1_13create_enum_tERKPKcmNS0_6mode_tEPKvRKNS0_11permissionsET_
	.p2align	4, 0x90
	.type	_ZN5boost12interprocess9ipcdetail27managed_open_or_create_implINS0_20shared_memory_objectELm16ELb1ELb0EE19priv_open_or_createINS1_16create_open_funcINS1_25basic_managed_memory_implIcNS0_15rbtree_best_fitINS0_12mutex_familyENS0_10offset_ptrIvlmLm0EEELm0EEENS0_10iset_indexELm16EEEEEEEvNS1_13create_enum_tERKPKcmNS0_6mode_tEPKvRKNS0_11permissionsET_,@function
_ZN5boost12interprocess9ipcdetail27managed_open_or_create_implINS0_20shared_memory_objectELm16ELb1ELb0EE19priv_open_or_createINS1_16create_open_funcINS1_25basic_managed_memory_implIcNS0_15rbtree_best_fitINS0_12mutex_familyENS0_10offset_ptrIvlmLm0EEELm0EEENS0_10iset_indexELm16EEEEEEEvNS1_13create_enum_tERKPKcmNS0_6mode_tEPKvRKNS0_11permissionsET_: # @_ZN5boost12interprocess9ipcdetail27managed_open_or_create_implINS0_20shared_memory_objectELm16ELb1ELb0EE19priv_open_or_createINS1_16create_open_funcINS1_25basic_managed_memory_implIcNS0_15rbtree_best_fitINS0_12mutex_familyENS0_10offset_ptrIvlmLm0EEELm0EEENS0_10iset_indexELm16EEEEEEEvNS1_13create_enum_tERKPKcmNS0_6mode_tEPKvRKNS0_11permissionsET_
.Lfunc_begin18:
	.cfi_startproc
	.cfi_personality 3, __gxx_personality_v0
	.cfi_lsda 3, .Lexception18
# %bb.0:
	pushq	%rbp
	.cfi_def_cfa_offset 16
	.cfi_offset %rbp, -16
	movq	%rsp, %rbp
	.cfi_def_cfa_register %rbp
	subq	$976, %rsp              # imm = 0x3D0
	leaq	24(%rbp), %rax
	movq	16(%rbp), %r10
	movq	%rdi, -8(%rbp)
	movl	%esi, -12(%rbp)
	movq	%rdx, -24(%rbp)
	movq	%rcx, -32(%rbp)
	movl	%r8d, -36(%rbp)
	movq	%r9, -48(%rbp)
	movq	-8(%rbp), %rcx
	movb	$0, -49(%rbp)
	movb	$0, -50(%rbp)
	movb	$0, -51(%rbp)
	leaq	-96(%rbp), %rdi
	movq	%rax, -648(%rbp)        # 8-byte Spill
	movq	%r10, -656(%rbp)        # 8-byte Spill
	movq	%rcx, -664(%rbp)        # 8-byte Spill
	callq	_ZN5boost12interprocess20shared_memory_objectC2Ev
	cmpl	$1, -12(%rbp)
	je	.LBB76_10
# %bb.1:
.Ltmp111:
	callq	_ZN5boost12interprocess9ipcdetail16create_open_funcINS1_25basic_managed_memory_implIcNS0_15rbtree_best_fitINS0_12mutex_familyENS0_10offset_ptrIvlmLm0EEELm0EEENS0_10iset_indexELm16EEEE12get_min_sizeEv
.Ltmp112:
	movq	%rax, -672(%rbp)        # 8-byte Spill
	jmp	.LBB76_2
.LBB76_2:
	movq	-672(%rbp), %rax        # 8-byte Reload
	movq	%rax, -104(%rbp)
	movq	$-17, %rcx
	cmpq	-104(%rbp), %rcx
	jb	.LBB76_4
# %bb.3:
	movq	-32(%rbp), %rax
	movq	-104(%rbp), %rcx
	addq	$16, %rcx
	cmpq	%rcx, %rax
	jae	.LBB76_9
.LBB76_4:
	movl	$48, %edi
	callq	__cxa_allocate_exception
	movq	%rax, %rcx
.Ltmp285:
	leaq	-128(%rbp), %rdi
	movl	$18, %esi
	movq	%rcx, -680(%rbp)        # 8-byte Spill
	movq	%rax, -688(%rbp)        # 8-byte Spill
	callq	_ZN5boost12interprocess10error_infoC2ENS0_12error_code_tE
.Ltmp286:
	jmp	.LBB76_5
.LBB76_5:
.Ltmp287:
	xorl	%eax, %eax
	movl	%eax, %edx
	leaq	-128(%rbp), %rsi
	movq	-688(%rbp), %rdi        # 8-byte Reload
	callq	_ZN5boost12interprocess22interprocess_exceptionC2ERKNS0_10error_infoEPKc
.Ltmp288:
	jmp	.LBB76_6
.LBB76_6:
.Ltmp290:
	movl	$_ZTIN5boost12interprocess22interprocess_exceptionE, %esi
	movl	$_ZN5boost12interprocess22interprocess_exceptionD2Ev, %edx
	movq	-680(%rbp), %rdi        # 8-byte Reload
	callq	__cxa_throw
.Ltmp291:
	jmp	.LBB76_171
.LBB76_7:
.Ltmp292:
                                        # kill: def $edx killed $edx killed $rdx
	movq	%rax, -112(%rbp)
	movl	%edx, -116(%rbp)
	jmp	.LBB76_168
.LBB76_8:
.Ltmp289:
                                        # kill: def $edx killed $edx killed $rdx
	movq	%rax, -112(%rbp)
	movl	%edx, -116(%rbp)
	movq	-680(%rbp), %rdi        # 8-byte Reload
	callq	__cxa_free_exception
	jmp	.LBB76_168
.LBB76_9:
	jmp	.LBB76_10
.LBB76_10:
	xorl	%eax, %eax
                                        # kill: def $al killed $al killed $eax
	cmpl	$1, -12(%rbp)
	movb	%al, -689(%rbp)         # 1-byte Spill
	je	.LBB76_13
# %bb.11:
	movq	-32(%rbp), %rdi
.Ltmp113:
	callq	_ZN5boost12interprocess9ipcdetail27managed_open_or_create_implINS0_20shared_memory_objectELm16ELb1ELb0EE19check_offset_t_sizeILb1EEEbmNS1_5bool_ILb1EEE
.Ltmp114:
	movb	%al, -690(%rbp)         # 1-byte Spill
	jmp	.LBB76_12
.LBB76_12:
	movb	-690(%rbp), %al         # 1-byte Reload
	xorb	$-1, %al
	movb	%al, -689(%rbp)         # 1-byte Spill
.LBB76_13:
	movb	-689(%rbp), %al         # 1-byte Reload
	testb	$1, %al
	jne	.LBB76_14
	jmp	.LBB76_18
.LBB76_14:
	movl	$48, %edi
	callq	__cxa_allocate_exception
	movq	%rax, %rcx
.Ltmp278:
	leaq	-144(%rbp), %rdi
	movl	$18, %esi
	movq	%rcx, -704(%rbp)        # 8-byte Spill
	movq	%rax, -712(%rbp)        # 8-byte Spill
	callq	_ZN5boost12interprocess10error_infoC2ENS0_12error_code_tE
.Ltmp279:
	jmp	.LBB76_15
.LBB76_15:
.Ltmp280:
	xorl	%eax, %eax
	movl	%eax, %edx
	leaq	-144(%rbp), %rsi
	movq	-712(%rbp), %rdi        # 8-byte Reload
	callq	_ZN5boost12interprocess22interprocess_exceptionC2ERKNS0_10error_infoEPKc
.Ltmp281:
	jmp	.LBB76_16
.LBB76_16:
.Ltmp283:
	movl	$_ZTIN5boost12interprocess22interprocess_exceptionE, %esi
	movl	$_ZN5boost12interprocess22interprocess_exceptionD2Ev, %edx
	movq	-704(%rbp), %rdi        # 8-byte Reload
	callq	__cxa_throw
.Ltmp284:
	jmp	.LBB76_171
.LBB76_17:
.Ltmp282:
                                        # kill: def $edx killed $edx killed $rdx
	movq	%rax, -112(%rbp)
	movl	%edx, -116(%rbp)
	movq	-704(%rbp), %rdi        # 8-byte Reload
	callq	__cxa_free_exception
	jmp	.LBB76_168
.LBB76_18:
	cmpl	$1, -12(%rbp)
	jne	.LBB76_24
# %bb.19:
	cmpl	$2, -36(%rbp)
	jne	.LBB76_24
# %bb.20:
	movq	-24(%rbp), %rax
	movq	(%rax), %rsi
.Ltmp168:
	leaq	-184(%rbp), %rdi
	movl	$2, %edx
	callq	_ZN5boost12interprocess20shared_memory_objectC2ENS0_11open_only_tEPKcNS0_6mode_tE
.Ltmp169:
	jmp	.LBB76_21
.LBB76_21:
.Ltmp170:
	leaq	-184(%rbp), %rdi
	leaq	-96(%rbp), %rsi
	callq	_ZN5boost12interprocess20shared_memory_object4swapERS1_
.Ltmp171:
	jmp	.LBB76_22
.LBB76_22:
	movb	$0, -49(%rbp)
	leaq	-184(%rbp), %rdi
	callq	_ZN5boost12interprocess20shared_memory_objectD2Ev
	jmp	.LBB76_82
.LBB76_23:
.Ltmp172:
                                        # kill: def $edx killed $edx killed $rdx
	movq	%rax, -112(%rbp)
	movl	%edx, -116(%rbp)
	leaq	-184(%rbp), %rdi
	callq	_ZN5boost12interprocess20shared_memory_objectD2Ev
	jmp	.LBB76_168
.LBB76_24:
	cmpl	$1, -12(%rbp)
	jne	.LBB76_30
# %bb.25:
	cmpl	$0, -36(%rbp)
	jne	.LBB76_30
# %bb.26:
	movq	-24(%rbp), %rax
	movq	(%rax), %rsi
.Ltmp163:
	leaq	-232(%rbp), %rdi
	xorl	%edx, %edx
	callq	_ZN5boost12interprocess20shared_memory_objectC2ENS0_11open_only_tEPKcNS0_6mode_tE
.Ltmp164:
	jmp	.LBB76_27
.LBB76_27:
.Ltmp165:
	leaq	-232(%rbp), %rdi
	leaq	-96(%rbp), %rsi
	callq	_ZN5boost12interprocess20shared_memory_object4swapERS1_
.Ltmp166:
	jmp	.LBB76_28
.LBB76_28:
	movb	$0, -49(%rbp)
	movb	$1, -50(%rbp)
	leaq	-232(%rbp), %rdi
	callq	_ZN5boost12interprocess20shared_memory_objectD2Ev
	jmp	.LBB76_81
.LBB76_29:
.Ltmp167:
                                        # kill: def $edx killed $edx killed $rdx
	movq	%rax, -112(%rbp)
	movl	%edx, -116(%rbp)
	leaq	-232(%rbp), %rdi
	callq	_ZN5boost12interprocess20shared_memory_objectD2Ev
	jmp	.LBB76_168
.LBB76_30:
	cmpl	$1, -12(%rbp)
	jne	.LBB76_36
# %bb.31:
	cmpl	$3, -36(%rbp)
	jne	.LBB76_36
# %bb.32:
	movq	-24(%rbp), %rax
	movq	(%rax), %rsi
.Ltmp158:
	leaq	-280(%rbp), %rdi
	xorl	%edx, %edx
	callq	_ZN5boost12interprocess20shared_memory_objectC2ENS0_11open_only_tEPKcNS0_6mode_tE
.Ltmp159:
	jmp	.LBB76_33
.LBB76_33:
.Ltmp160:
	leaq	-280(%rbp), %rdi
	leaq	-96(%rbp), %rsi
	callq	_ZN5boost12interprocess20shared_memory_object4swapERS1_
.Ltmp161:
	jmp	.LBB76_34
.LBB76_34:
	movb	$0, -49(%rbp)
	movb	$1, -51(%rbp)
	leaq	-280(%rbp), %rdi
	callq	_ZN5boost12interprocess20shared_memory_objectD2Ev
	jmp	.LBB76_80
.LBB76_35:
.Ltmp162:
                                        # kill: def $edx killed $edx killed $rdx
	movq	%rax, -112(%rbp)
	movl	%edx, -116(%rbp)
	leaq	-280(%rbp), %rdi
	callq	_ZN5boost12interprocess20shared_memory_objectD2Ev
	jmp	.LBB76_168
.LBB76_36:
	cmpl	$0, -12(%rbp)
	jne	.LBB76_39
# %bb.37:
	movq	-24(%rbp), %rsi
	movq	-32(%rbp), %rdx
	movq	16(%rbp), %rcx
.Ltmp156:
	leaq	-96(%rbp), %rdi
	callq	_ZN5boost12interprocess9ipcdetail27managed_open_or_create_implINS0_20shared_memory_objectELm16ELb1ELb0EE13create_deviceILb1EEEvRS3_RKPKcmRKNS0_11permissionsENS1_5bool_ILb1EEE
.Ltmp157:
	jmp	.LBB76_38
.LBB76_38:
	movb	$1, -49(%rbp)
	jmp	.LBB76_79
.LBB76_39:
	cmpl	$2, -12(%rbp)
	jne	.LBB76_78
# %bb.40:
	movb	$0, -297(%rbp)
.Ltmp115:
	leaq	-336(%rbp), %rdi
	callq	_ZN5boost12interprocess9spin_waitC2Ev
.Ltmp116:
	jmp	.LBB76_41
.LBB76_41:
	jmp	.LBB76_42
.LBB76_42:                              # =>This Inner Loop Header: Depth=1
	movb	-297(%rbp), %al
	xorb	$-1, %al
	testb	$1, %al
	jne	.LBB76_43
	jmp	.LBB76_77
.LBB76_43:                              #   in Loop: Header=BB76_42 Depth=1
	movq	-24(%rbp), %rsi
	movq	-32(%rbp), %rdx
	movq	16(%rbp), %rcx
.Ltmp117:
	leaq	-96(%rbp), %rdi
	callq	_ZN5boost12interprocess9ipcdetail27managed_open_or_create_implINS0_20shared_memory_objectELm16ELb1ELb0EE13create_deviceILb1EEEvRS3_RKPKcmRKNS0_11permissionsENS1_5bool_ILb1EEE
.Ltmp118:
	jmp	.LBB76_44
.LBB76_44:                              #   in Loop: Header=BB76_42 Depth=1
	movb	$1, -49(%rbp)
	movb	$1, -297(%rbp)
	jmp	.LBB76_73
.LBB76_45:                              #   in Loop: Header=BB76_42 Depth=1
.Ltmp119:
                                        # kill: def $edx killed $edx killed $rdx
	movq	%rax, -112(%rbp)
	movl	%edx, -116(%rbp)
# %bb.46:                               #   in Loop: Header=BB76_42 Depth=1
	movl	-116(%rbp), %eax
	movl	$2, %ecx
	cmpl	%ecx, %eax
	jne	.LBB76_50
# %bb.47:                               #   in Loop: Header=BB76_42 Depth=1
	movq	-112(%rbp), %rdi
	callq	__cxa_begin_catch
	movq	%rax, -352(%rbp)
	movq	-352(%rbp), %rdi
.Ltmp125:
	callq	_ZNK5boost12interprocess22interprocess_exception14get_error_codeEv
.Ltmp126:
	movl	%eax, -716(%rbp)        # 4-byte Spill
	jmp	.LBB76_48
.LBB76_48:                              #   in Loop: Header=BB76_42 Depth=1
	movl	-716(%rbp), %eax        # 4-byte Reload
	cmpl	$9, %eax
	je	.LBB76_54
# %bb.49:
.Ltmp149:
	callq	__cxa_rethrow
.Ltmp150:
	jmp	.LBB76_171
.LBB76_50:
	movq	-112(%rbp), %rdi
	callq	__cxa_begin_catch
.Ltmp120:
	movq	%rax, -728(%rbp)        # 8-byte Spill
	callq	__cxa_rethrow
.Ltmp121:
	jmp	.LBB76_171
.LBB76_51:
.Ltmp122:
                                        # kill: def $edx killed $edx killed $rdx
	movq	%rax, -112(%rbp)
	movl	%edx, -116(%rbp)
.Ltmp123:
	callq	__cxa_end_catch
.Ltmp124:
	jmp	.LBB76_52
.LBB76_52:
	jmp	.LBB76_168
.LBB76_53:
.Ltmp151:
                                        # kill: def $edx killed $edx killed $rdx
	movq	%rax, -112(%rbp)
	movl	%edx, -116(%rbp)
	jmp	.LBB76_75
.LBB76_54:                              #   in Loop: Header=BB76_42 Depth=1
	movq	-24(%rbp), %rax
	movq	(%rax), %rsi
.Ltmp127:
	leaq	-392(%rbp), %rdi
	movl	$2, %edx
	callq	_ZN5boost12interprocess20shared_memory_objectC2ENS0_11open_only_tEPKcNS0_6mode_tE
.Ltmp128:
	jmp	.LBB76_55
.LBB76_55:                              #   in Loop: Header=BB76_42 Depth=1
.Ltmp130:
	leaq	-96(%rbp), %rdi
	leaq	-392(%rbp), %rsi
	callq	_ZN5boost12interprocess20shared_memory_object4swapERS1_
.Ltmp131:
	jmp	.LBB76_56
.LBB76_56:                              #   in Loop: Header=BB76_42 Depth=1
	movb	$0, -49(%rbp)
	movb	$1, -297(%rbp)
	leaq	-392(%rbp), %rdi
	callq	_ZN5boost12interprocess20shared_memory_objectD2Ev
	jmp	.LBB76_69
.LBB76_57:                              #   in Loop: Header=BB76_42 Depth=1
.Ltmp129:
                                        # kill: def $edx killed $edx killed $rdx
	movq	%rax, -112(%rbp)
	movl	%edx, -116(%rbp)
	jmp	.LBB76_59
.LBB76_58:                              #   in Loop: Header=BB76_42 Depth=1
.Ltmp132:
                                        # kill: def $edx killed $edx killed $rdx
	movq	%rax, -112(%rbp)
	movl	%edx, -116(%rbp)
	leaq	-392(%rbp), %rdi
	callq	_ZN5boost12interprocess20shared_memory_objectD2Ev
.LBB76_59:                              #   in Loop: Header=BB76_42 Depth=1
	movl	-116(%rbp), %eax
	movl	$2, %ecx
	cmpl	%ecx, %eax
	jne	.LBB76_63
# %bb.60:                               #   in Loop: Header=BB76_42 Depth=1
	movq	-112(%rbp), %rdi
	callq	__cxa_begin_catch
	movq	%rax, -408(%rbp)
	movq	-408(%rbp), %rdi
.Ltmp138:
	callq	_ZNK5boost12interprocess22interprocess_exception14get_error_codeEv
.Ltmp139:
	movl	%eax, -732(%rbp)        # 4-byte Spill
	jmp	.LBB76_61
.LBB76_61:                              #   in Loop: Header=BB76_42 Depth=1
	movl	-732(%rbp), %eax        # 4-byte Reload
	cmpl	$7, %eax
	je	.LBB76_67
# %bb.62:
.Ltmp142:
	callq	__cxa_rethrow
.Ltmp143:
	jmp	.LBB76_171
.LBB76_63:
	movq	-112(%rbp), %rdi
	callq	__cxa_begin_catch
.Ltmp133:
	movq	%rax, -744(%rbp)        # 8-byte Spill
	callq	__cxa_rethrow
.Ltmp134:
	jmp	.LBB76_171
.LBB76_64:
.Ltmp135:
                                        # kill: def $edx killed $edx killed $rdx
	movq	%rax, -112(%rbp)
	movl	%edx, -116(%rbp)
.Ltmp136:
	callq	__cxa_end_catch
.Ltmp137:
	jmp	.LBB76_65
.LBB76_65:
	jmp	.LBB76_75
.LBB76_66:
.Ltmp144:
                                        # kill: def $edx killed $edx killed $rdx
	movq	%rax, -112(%rbp)
	movl	%edx, -116(%rbp)
.Ltmp145:
	callq	__cxa_end_catch
.Ltmp146:
	jmp	.LBB76_70
.LBB76_67:                              #   in Loop: Header=BB76_42 Depth=1
.Ltmp140:
	callq	__cxa_end_catch
.Ltmp141:
	jmp	.LBB76_68
.LBB76_68:                              #   in Loop: Header=BB76_42 Depth=1
	jmp	.LBB76_69
.LBB76_69:                              #   in Loop: Header=BB76_42 Depth=1
	jmp	.LBB76_71
.LBB76_70:
	jmp	.LBB76_75
.LBB76_71:                              #   in Loop: Header=BB76_42 Depth=1
.Ltmp147:
	callq	__cxa_end_catch
.Ltmp148:
	jmp	.LBB76_72
.LBB76_72:                              #   in Loop: Header=BB76_42 Depth=1
	jmp	.LBB76_73
.LBB76_73:                              #   in Loop: Header=BB76_42 Depth=1
.Ltmp154:
	leaq	-336(%rbp), %rdi
	callq	_ZN5boost12interprocess9spin_wait5yieldEv
.Ltmp155:
	jmp	.LBB76_74
.LBB76_74:                              #   in Loop: Header=BB76_42 Depth=1
	jmp	.LBB76_42
.LBB76_75:
.Ltmp152:
	callq	__cxa_end_catch
.Ltmp153:
	jmp	.LBB76_76
.LBB76_76:
	jmp	.LBB76_168
.LBB76_77:
	jmp	.LBB76_78
.LBB76_78:
	jmp	.LBB76_79
.LBB76_79:
	jmp	.LBB76_80
.LBB76_80:
	jmp	.LBB76_81
.LBB76_81:
	jmp	.LBB76_82
.LBB76_82:
	testb	$1, -49(%rbp)
	je	.LBB76_122
# %bb.83:
	movq	-32(%rbp), %rsi
.Ltmp227:
	leaq	-96(%rbp), %rdi
	callq	_ZN5boost12interprocess9ipcdetail27managed_open_or_create_implINS0_20shared_memory_objectELm16ELb1ELb0EE15truncate_deviceILb1EEEvRS3_lNS1_5bool_ILb1EEE
.Ltmp228:
	jmp	.LBB76_84
.LBB76_84:
	movq	-48(%rbp), %r9
.Ltmp229:
	movq	%rsp, %rax
	movl	$-1, (%rax)
	xorl	%ecx, %ecx
	movl	%ecx, %eax
	leaq	-448(%rbp), %rdi
	leaq	-96(%rbp), %rsi
	movl	$2, %edx
	movq	%rax, %rcx
	movq	%rax, %r8
	callq	_ZN5boost12interprocess13mapped_regionC2INS0_20shared_memory_objectEEERKT_NS0_6mode_tElmPKvi
.Ltmp230:
	jmp	.LBB76_85
.LBB76_85:
	movq	$0, -456(%rbp)
.Ltmp232:
	leaq	-448(%rbp), %rdi
	callq	_ZNK5boost12interprocess13mapped_region11get_addressEv
.Ltmp233:
	movq	%rax, -752(%rbp)        # 8-byte Spill
	jmp	.LBB76_86
.LBB76_86:
	movq	-752(%rbp), %rax        # 8-byte Reload
	movq	%rax, -456(%rbp)
	movq	-456(%rbp), %rdi
.Ltmp234:
	movl	$1, %esi
	xorl	%edx, %edx
	callq	_ZN5boost12interprocess9ipcdetail12atomic_cas32EPVjjj
.Ltmp235:
	movl	%eax, -756(%rbp)        # 4-byte Spill
	jmp	.LBB76_87
.LBB76_87:
	movl	-756(%rbp), %eax        # 4-byte Reload
	movl	%eax, -460(%rbp)
	cmpl	$0, -460(%rbp)
	jne	.LBB76_101
# %bb.88:
.Ltmp250:
	leaq	-448(%rbp), %rdi
	callq	_ZNK5boost12interprocess13mapped_region11get_addressEv
.Ltmp251:
	movq	%rax, -768(%rbp)        # 8-byte Spill
	jmp	.LBB76_89
.LBB76_89:
	movq	-768(%rbp), %rax        # 8-byte Reload
	addq	$16, %rax
	movq	-32(%rbp), %rcx
	addq	$-16, %rcx
.Ltmp252:
	movl	$1, %edx
	movq	-648(%rbp), %rdi        # 8-byte Reload
	movq	%rax, %rsi
	movl	%edx, -772(%rbp)        # 4-byte Spill
	movq	%rcx, %rdx
	movl	-772(%rbp), %ecx        # 4-byte Reload
	callq	_ZNK5boost12interprocess9ipcdetail16create_open_funcINS1_25basic_managed_memory_implIcNS0_15rbtree_best_fitINS0_12mutex_familyENS0_10offset_ptrIvlmLm0EEELm0EEENS0_10iset_indexELm16EEEEclEPvmb
.Ltmp253:
	jmp	.LBB76_90
.LBB76_90:
.Ltmp254:
	leaq	-448(%rbp), %rsi
	movq	-664(%rbp), %rdi        # 8-byte Reload
	callq	_ZN5boost12interprocess13mapped_region4swapERS1_
.Ltmp255:
	jmp	.LBB76_91
.LBB76_91:
	jmp	.LBB76_99
.LBB76_92:
.Ltmp231:
                                        # kill: def $edx killed $edx killed $rdx
	movq	%rax, -112(%rbp)
	movl	%edx, -116(%rbp)
	jmp	.LBB76_113
.LBB76_93:
.Ltmp266:
                                        # kill: def $edx killed $edx killed $rdx
	movq	%rax, -112(%rbp)
	movl	%edx, -116(%rbp)
	jmp	.LBB76_112
.LBB76_94:
.Ltmp256:
                                        # kill: def $edx killed $edx killed $rdx
	movq	%rax, -112(%rbp)
	movl	%edx, -116(%rbp)
# %bb.95:
	movq	-112(%rbp), %rdi
	callq	__cxa_begin_catch
	movq	-456(%rbp), %rdi
.Ltmp257:
	movl	$3, %esi
	movq	%rax, -784(%rbp)        # 8-byte Spill
	callq	_ZN5boost12interprocess9ipcdetail14atomic_write32EPVjj
.Ltmp258:
	jmp	.LBB76_96
.LBB76_96:
.Ltmp259:
	callq	__cxa_rethrow
.Ltmp260:
	jmp	.LBB76_171
.LBB76_97:
.Ltmp261:
                                        # kill: def $edx killed $edx killed $rdx
	movq	%rax, -112(%rbp)
	movl	%edx, -116(%rbp)
.Ltmp262:
	callq	__cxa_end_catch
.Ltmp263:
	jmp	.LBB76_98
.LBB76_98:
	jmp	.LBB76_112
.LBB76_99:
	movq	-456(%rbp), %rdi
.Ltmp264:
	movl	$2, %esi
	callq	_ZN5boost12interprocess9ipcdetail14atomic_write32EPVjj
.Ltmp265:
	jmp	.LBB76_100
.LBB76_100:
	jmp	.LBB76_111
.LBB76_101:
	cmpl	$1, -460(%rbp)
	je	.LBB76_103
# %bb.102:
	cmpl	$2, -460(%rbp)
	jne	.LBB76_107
.LBB76_103:
	movl	$48, %edi
	callq	__cxa_allocate_exception
	movq	%rax, %rcx
.Ltmp243:
	leaq	-472(%rbp), %rdi
	movl	$9, %esi
	movq	%rcx, -792(%rbp)        # 8-byte Spill
	movq	%rax, -800(%rbp)        # 8-byte Spill
	callq	_ZN5boost12interprocess10error_infoC2ENS0_12error_code_tE
.Ltmp244:
	jmp	.LBB76_104
.LBB76_104:
.Ltmp245:
	xorl	%eax, %eax
	movl	%eax, %edx
	leaq	-472(%rbp), %rsi
	movq	-800(%rbp), %rdi        # 8-byte Reload
	callq	_ZN5boost12interprocess22interprocess_exceptionC2ERKNS0_10error_infoEPKc
.Ltmp246:
	jmp	.LBB76_105
.LBB76_105:
.Ltmp248:
	movl	$_ZTIN5boost12interprocess22interprocess_exceptionE, %esi
	movl	$_ZN5boost12interprocess22interprocess_exceptionD2Ev, %edx
	movq	-792(%rbp), %rdi        # 8-byte Reload
	callq	__cxa_throw
.Ltmp249:
	jmp	.LBB76_171
.LBB76_106:
.Ltmp247:
                                        # kill: def $edx killed $edx killed $rdx
	movq	%rax, -112(%rbp)
	movl	%edx, -116(%rbp)
	movq	-792(%rbp), %rdi        # 8-byte Reload
	callq	__cxa_free_exception
	jmp	.LBB76_112
.LBB76_107:
	movl	$48, %edi
	callq	__cxa_allocate_exception
	movq	%rax, %rcx
.Ltmp236:
	leaq	-480(%rbp), %rdi
	movl	$19, %esi
	movq	%rcx, -808(%rbp)        # 8-byte Spill
	movq	%rax, -816(%rbp)        # 8-byte Spill
	callq	_ZN5boost12interprocess10error_infoC2ENS0_12error_code_tE
.Ltmp237:
	jmp	.LBB76_108
.LBB76_108:
.Ltmp238:
	xorl	%eax, %eax
	movl	%eax, %edx
	leaq	-480(%rbp), %rsi
	movq	-816(%rbp), %rdi        # 8-byte Reload
	callq	_ZN5boost12interprocess22interprocess_exceptionC2ERKNS0_10error_infoEPKc
.Ltmp239:
	jmp	.LBB76_109
.LBB76_109:
.Ltmp241:
	movl	$_ZTIN5boost12interprocess22interprocess_exceptionE, %esi
	movl	$_ZN5boost12interprocess22interprocess_exceptionD2Ev, %edx
	movq	-808(%rbp), %rdi        # 8-byte Reload
	callq	__cxa_throw
.Ltmp242:
	jmp	.LBB76_171
.LBB76_110:
.Ltmp240:
                                        # kill: def $edx killed $edx killed $rdx
	movq	%rax, -112(%rbp)
	movl	%edx, -116(%rbp)
	movq	-808(%rbp), %rdi        # 8-byte Reload
	callq	__cxa_free_exception
	jmp	.LBB76_112
.LBB76_111:
	leaq	-448(%rbp), %rdi
	callq	_ZN5boost12interprocess13mapped_regionD2Ev
	jmp	.LBB76_121
.LBB76_112:
	leaq	-448(%rbp), %rdi
	callq	_ZN5boost12interprocess13mapped_regionD2Ev
.LBB76_113:
	movq	-112(%rbp), %rdi
	callq	__cxa_begin_catch
.Ltmp267:
	leaq	-96(%rbp), %rdi
	movl	$1, %esi
	movq	%rax, -824(%rbp)        # 8-byte Spill
	callq	_ZN5boost12interprocess9ipcdetail27managed_open_or_create_implINS0_20shared_memory_objectELm16ELb1ELb0EE15truncate_deviceILb1EEEvRS3_lNS1_5bool_ILb1EEE
.Ltmp268:
	jmp	.LBB76_114
.LBB76_114:
	jmp	.LBB76_118
.LBB76_115:
.Ltmp269:
                                        # kill: def $edx killed $edx killed $rdx
	movq	%rax, -112(%rbp)
	movl	%edx, -116(%rbp)
# %bb.116:
	movq	-112(%rbp), %rdi
	callq	__cxa_begin_catch
.Ltmp270:
	movq	%rax, -832(%rbp)        # 8-byte Spill
	callq	__cxa_end_catch
.Ltmp271:
	jmp	.LBB76_117
.LBB76_117:
	jmp	.LBB76_118
.LBB76_118:
.Ltmp272:
	callq	__cxa_rethrow
.Ltmp273:
	jmp	.LBB76_171
.LBB76_119:
.Ltmp274:
                                        # kill: def $edx killed $edx killed $rdx
	movq	%rax, -112(%rbp)
	movl	%edx, -116(%rbp)
.Ltmp275:
	callq	__cxa_end_catch
.Ltmp276:
	jmp	.LBB76_120
.LBB76_120:
	jmp	.LBB76_168
.LBB76_121:
	jmp	.LBB76_167
.LBB76_122:
	movq	$0, -496(%rbp)
.Ltmp173:
	leaq	-528(%rbp), %rdi
	callq	_ZN5boost12interprocess9spin_waitC2Ev
.Ltmp174:
	jmp	.LBB76_123
.LBB76_123:
	jmp	.LBB76_124
.LBB76_124:                             # =>This Inner Loop Header: Depth=1
	cmpq	$0, -496(%rbp)
	jne	.LBB76_136
# %bb.125:                              #   in Loop: Header=BB76_124 Depth=1
.Ltmp210:
	leaq	-96(%rbp), %rdi
	callq	_ZNK5boost12interprocess20shared_memory_object18get_mapping_handleEv
.Ltmp211:
	movq	%rax, -840(%rbp)        # 8-byte Spill
	jmp	.LBB76_126
.LBB76_126:                             #   in Loop: Header=BB76_124 Depth=1
	movq	-840(%rbp), %rax        # 8-byte Reload
	movq	%rax, -536(%rbp)
	movq	-536(%rbp), %rdi
.Ltmp212:
	callq	_ZN5boost12interprocess9ipcdetail31file_handle_from_mapping_handleENS0_21mapping_handle_impl_tE
.Ltmp213:
	movl	%eax, -844(%rbp)        # 4-byte Spill
	jmp	.LBB76_127
.LBB76_127:                             #   in Loop: Header=BB76_124 Depth=1
.Ltmp214:
	leaq	-496(%rbp), %rsi
	movl	-844(%rbp), %edi        # 4-byte Reload
	callq	_ZN5boost12interprocess9ipcdetail13get_file_sizeEiRl
.Ltmp215:
	movb	%al, -845(%rbp)         # 1-byte Spill
	jmp	.LBB76_128
.LBB76_128:                             #   in Loop: Header=BB76_124 Depth=1
	movb	-845(%rbp), %al         # 1-byte Reload
	xorb	$-1, %al
	testb	$1, %al
	jne	.LBB76_129
	jmp	.LBB76_134
.LBB76_129:
.Ltmp218:
	callq	_ZN5boost12interprocess17system_error_codeEv
.Ltmp219:
	movl	%eax, -852(%rbp)        # 4-byte Spill
	jmp	.LBB76_130
.LBB76_130:
.Ltmp220:
	leaq	-544(%rbp), %rdi
	movl	-852(%rbp), %esi        # 4-byte Reload
	callq	_ZN5boost12interprocess10error_infoC2Ei
.Ltmp221:
	jmp	.LBB76_131
.LBB76_131:
	movl	$48, %edi
	callq	__cxa_allocate_exception
	movq	%rax, %rcx
.Ltmp222:
	xorl	%edx, %edx
                                        # kill: def $rdx killed $edx
	leaq	-544(%rbp), %rsi
	movq	%rax, %rdi
	movq	%rcx, -864(%rbp)        # 8-byte Spill
	callq	_ZN5boost12interprocess22interprocess_exceptionC2ERKNS0_10error_infoEPKc
.Ltmp223:
	jmp	.LBB76_132
.LBB76_132:
.Ltmp225:
	movl	$_ZTIN5boost12interprocess22interprocess_exceptionE, %esi
	movl	$_ZN5boost12interprocess22interprocess_exceptionD2Ev, %edx
	movq	-864(%rbp), %rdi        # 8-byte Reload
	callq	__cxa_throw
.Ltmp226:
	jmp	.LBB76_171
.LBB76_133:
.Ltmp224:
                                        # kill: def $edx killed $edx killed $rdx
	movq	%rax, -112(%rbp)
	movl	%edx, -116(%rbp)
	movq	-864(%rbp), %rdi        # 8-byte Reload
	callq	__cxa_free_exception
	jmp	.LBB76_168
